ARM GAS  C:\Users\jonas\AppData\Local\Temp\ccpfU1Vn.s 			page 1


   1              		.cpu cortex-m7
   2              		.eabi_attribute 28, 1
   3              		.eabi_attribute 20, 1
   4              		.eabi_attribute 21, 1
   5              		.eabi_attribute 23, 3
   6              		.eabi_attribute 24, 1
   7              		.eabi_attribute 25, 1
   8              		.eabi_attribute 26, 1
   9              		.eabi_attribute 30, 1
  10              		.eabi_attribute 34, 1
  11              		.eabi_attribute 18, 4
  12              		.file	"overdrive.cpp"
  13              		.text
  14              	.Ltext0:
  15              		.cfi_sections	.debug_frame
  16              		.section	.text._ZN5daisy3LedD2Ev,"axG",%progbits,_ZN5daisy3LedD5Ev,comdat
  17              		.align	1
  18              		.weak	_ZN5daisy3LedD2Ev
  19              		.arch armv7e-m
  20              		.syntax unified
  21              		.thumb
  22              		.thumb_func
  23              		.fpu fpv5-d16
  25              	_ZN5daisy3LedD2Ev:
  26              	.LVL0:
  27              	.LFB1844:
  28              		.file 1 "../../libDaisy/src/hid/led.h"
   1:../../libDaisy/src/hid/led.h **** 
   2:../../libDaisy/src/hid/led.h **** #pragma once
   3:../../libDaisy/src/hid/led.h **** #ifndef DSY_LED_H
   4:../../libDaisy/src/hid/led.h **** #define DSY_LED_H
   5:../../libDaisy/src/hid/led.h **** #include "daisy_core.h"
   6:../../libDaisy/src/hid/led.h **** #include "per/gpio.h"
   7:../../libDaisy/src/hid/led.h **** 
   8:../../libDaisy/src/hid/led.h **** /* TODO - Get this set up to work with the dev_leddriver stuff as well
   9:../../libDaisy/src/hid/led.h **** - Setup Hardware PWM for pins that have it
  10:../../libDaisy/src/hid/led.h **** */
  11:../../libDaisy/src/hid/led.h **** 
  12:../../libDaisy/src/hid/led.h **** namespace daisy
  13:../../libDaisy/src/hid/led.h **** {
  14:../../libDaisy/src/hid/led.h **** /**
  15:../../libDaisy/src/hid/led.h ****     @brief LED Class providing simple Software PWM ability, etc \n 
  16:../../libDaisy/src/hid/led.h ****     Eventually this will work with hardware PWM, and external LED Driver devices as well.
  17:../../libDaisy/src/hid/led.h ****     @author shensley
  18:../../libDaisy/src/hid/led.h ****     @date March 2020
  19:../../libDaisy/src/hid/led.h ****     @ingroup feedback
  20:../../libDaisy/src/hid/led.h **** */
  21:../../libDaisy/src/hid/led.h **** class Led
  22:../../libDaisy/src/hid/led.h **** {
  23:../../libDaisy/src/hid/led.h ****   public:
  24:../../libDaisy/src/hid/led.h ****     Led() {}
  25:../../libDaisy/src/hid/led.h ****     ~Led() {}
  29              		.loc 1 25 5 view -0
  30              		.cfi_startproc
  31              		@ args = 0, pretend = 0, frame = 0
  32              		@ frame_needed = 0, uses_anonymous_args = 0
  33              		@ link register save eliminated.
ARM GAS  C:\Users\jonas\AppData\Local\Temp\ccpfU1Vn.s 			page 2


  34              		.loc 1 25 13 is_stmt 0 view .LVU1
  35 0000 7047     		bx	lr
  36              		.cfi_endproc
  37              	.LFE1844:
  39              		.weak	_ZN5daisy3LedD1Ev
  40              		.thumb_set _ZN5daisy3LedD1Ev,_ZN5daisy3LedD2Ev
  41              		.section	.text._ZN5daisy10DaisyPetalD2Ev,"axG",%progbits,_ZN5daisy10DaisyPetalD5Ev,comdat
  42              		.align	1
  43              		.weak	_ZN5daisy10DaisyPetalD2Ev
  44              		.syntax unified
  45              		.thumb
  46              		.thumb_func
  47              		.fpu fpv5-d16
  49              	_ZN5daisy10DaisyPetalD2Ev:
  50              	.LVL1:
  51              	.LFB2567:
  52              		.file 2 "../../libDaisy/src/daisy_petal.h"
   1:../../libDaisy/src/daisy_petal.h **** #pragma once
   2:../../libDaisy/src/daisy_petal.h **** #ifndef DSY_PETAL_H
   3:../../libDaisy/src/daisy_petal.h **** #define DSY_PETAL_H /**< & */
   4:../../libDaisy/src/daisy_petal.h **** 
   5:../../libDaisy/src/daisy_petal.h **** #include "daisy_seed.h"
   6:../../libDaisy/src/daisy_petal.h **** 
   7:../../libDaisy/src/daisy_petal.h **** namespace daisy
   8:../../libDaisy/src/daisy_petal.h **** {
   9:../../libDaisy/src/daisy_petal.h **** /**
  10:../../libDaisy/src/daisy_petal.h ****    @brief Helpers and hardware definitions for daisy petal.
  11:../../libDaisy/src/daisy_petal.h ****    @ingroup boards
  12:../../libDaisy/src/daisy_petal.h **** */
  13:../../libDaisy/src/daisy_petal.h **** class DaisyPetal
  14:../../libDaisy/src/daisy_petal.h **** {
  15:../../libDaisy/src/daisy_petal.h ****   public:
  16:../../libDaisy/src/daisy_petal.h ****     /** Switches */
  17:../../libDaisy/src/daisy_petal.h ****     enum Sw
  18:../../libDaisy/src/daisy_petal.h ****     {
  19:../../libDaisy/src/daisy_petal.h ****         SW_1,    /**< Footswitch */
  20:../../libDaisy/src/daisy_petal.h ****         SW_2,    /**< Footswitch */
  21:../../libDaisy/src/daisy_petal.h ****         SW_3,    /**< Footswitch */
  22:../../libDaisy/src/daisy_petal.h ****         SW_4,    /**< Footswitch */
  23:../../libDaisy/src/daisy_petal.h ****         SW_5,    /**< Toggle */
  24:../../libDaisy/src/daisy_petal.h ****         SW_6,    /**< Toggle */
  25:../../libDaisy/src/daisy_petal.h ****         SW_7,    /**< Toggle */
  26:../../libDaisy/src/daisy_petal.h ****         SW_LAST, /**< Last enum item */
  27:../../libDaisy/src/daisy_petal.h ****     };
  28:../../libDaisy/src/daisy_petal.h **** 
  29:../../libDaisy/src/daisy_petal.h ****     /** Knobs */
  30:../../libDaisy/src/daisy_petal.h ****     enum Knob
  31:../../libDaisy/src/daisy_petal.h ****     {
  32:../../libDaisy/src/daisy_petal.h ****         KNOB_1,    /**< & */
  33:../../libDaisy/src/daisy_petal.h ****         KNOB_2,    /**< & */
  34:../../libDaisy/src/daisy_petal.h ****         KNOB_3,    /**< & */
  35:../../libDaisy/src/daisy_petal.h ****         KNOB_4,    /**< & */
  36:../../libDaisy/src/daisy_petal.h ****         KNOB_5,    /**< & */
  37:../../libDaisy/src/daisy_petal.h ****         KNOB_6,    /**< & */
  38:../../libDaisy/src/daisy_petal.h ****         KNOB_LAST, /**< & */
  39:../../libDaisy/src/daisy_petal.h ****     };
  40:../../libDaisy/src/daisy_petal.h **** 
ARM GAS  C:\Users\jonas\AppData\Local\Temp\ccpfU1Vn.s 			page 3


  41:../../libDaisy/src/daisy_petal.h ****     /** Leds in ringled */
  42:../../libDaisy/src/daisy_petal.h ****     enum RingLed
  43:../../libDaisy/src/daisy_petal.h ****     {
  44:../../libDaisy/src/daisy_petal.h ****         RING_LED_1,   /**< & */
  45:../../libDaisy/src/daisy_petal.h ****         RING_LED_2,   /**< & */
  46:../../libDaisy/src/daisy_petal.h ****         RING_LED_3,   /**< & */
  47:../../libDaisy/src/daisy_petal.h ****         RING_LED_4,   /**< & */
  48:../../libDaisy/src/daisy_petal.h ****         RING_LED_5,   /**< & */
  49:../../libDaisy/src/daisy_petal.h ****         RING_LED_6,   /**< & */
  50:../../libDaisy/src/daisy_petal.h ****         RING_LED_7,   /**< & */
  51:../../libDaisy/src/daisy_petal.h ****         RING_LED_8,   /**< & */
  52:../../libDaisy/src/daisy_petal.h ****         RING_LED_LAST /**< & */
  53:../../libDaisy/src/daisy_petal.h ****     };
  54:../../libDaisy/src/daisy_petal.h **** 
  55:../../libDaisy/src/daisy_petal.h ****     /** footswitch leds */
  56:../../libDaisy/src/daisy_petal.h ****     enum FootswitchLed
  57:../../libDaisy/src/daisy_petal.h ****     {
  58:../../libDaisy/src/daisy_petal.h ****         FOOTSWITCH_LED_1,    /**< & */
  59:../../libDaisy/src/daisy_petal.h ****         FOOTSWITCH_LED_2,    /**< & */
  60:../../libDaisy/src/daisy_petal.h ****         FOOTSWITCH_LED_3,    /**< & */
  61:../../libDaisy/src/daisy_petal.h ****         FOOTSWITCH_LED_4,    /**< & */
  62:../../libDaisy/src/daisy_petal.h ****         FOOTSWITCH_LED_LAST, /**< & */
  63:../../libDaisy/src/daisy_petal.h ****     };
  64:../../libDaisy/src/daisy_petal.h **** 
  65:../../libDaisy/src/daisy_petal.h ****     /** Constructor */
  66:../../libDaisy/src/daisy_petal.h ****     DaisyPetal() {}
  67:../../libDaisy/src/daisy_petal.h ****     /** Destructor */
  68:../../libDaisy/src/daisy_petal.h ****     ~DaisyPetal() {}
  53              		.loc 2 68 5 is_stmt 1 view -0
  54              		.cfi_startproc
  55              		@ args = 0, pretend = 0, frame = 0
  56              		@ frame_needed = 0, uses_anonymous_args = 0
  57              		@ link register save eliminated.
  58              	.LBB187:
  59              		.loc 2 68 19 is_stmt 0 view .LVU3
  60 0000 10F58B62 		adds	r2, r0, #1112
  61 0004 05D0     		beq	.L3
  62              		.loc 2 68 19 discriminator 1 view .LVU4
  63 0006 00F59963 		add	r3, r0, #1224
  64              	.L4:
  65              		.loc 2 68 19 discriminator 6 view .LVU5
  66 000a 9A42     		cmp	r2, r3
  67 000c 01D0     		beq	.L3
  68              		.loc 2 68 19 discriminator 5 view .LVU6
  69 000e 1C3B     		subs	r3, r3, #28
  70              	.LVL2:
  71              	.LBB188:
  72              	.LBI188:
  73              		.loc 1 25 5 is_stmt 1 discriminator 5 view .LVU7
  74              	.LBB189:
  75              		.loc 1 25 13 is_stmt 0 discriminator 5 view .LVU8
  76 0010 FBE7     		b	.L4
  77              	.LVL3:
  78              	.L3:
  79              		.loc 1 25 13 discriminator 5 view .LVU9
  80              	.LBE189:
  81              	.LBE188:
ARM GAS  C:\Users\jonas\AppData\Local\Temp\ccpfU1Vn.s 			page 4


  82              		.loc 2 68 19 discriminator 7 view .LVU10
  83 0012 10F5DC73 		adds	r3, r0, #440
  84 0016 01D1     		bne	.L6
  85              		.loc 2 68 19 view .LVU11
  86 0018 02E0     		b	.L5
  87              	.L11:
  88              		.loc 2 68 19 discriminator 12 view .LVU12
  89 001a 543A     		subs	r2, r2, #84
  90              	.LVL4:
  91              	.LBB190:
  92              	.LBI190:
  93              		.file 3 "../../libDaisy/src/hid/rgb_led.h"
   1:../../libDaisy/src/hid/rgb_led.h **** #pragma once
   2:../../libDaisy/src/hid/rgb_led.h **** #ifndef DSY_RGB_LED_H
   3:../../libDaisy/src/hid/rgb_led.h **** #define DSY_RGB_LED_H
   4:../../libDaisy/src/hid/rgb_led.h **** #include "hid/led.h"
   5:../../libDaisy/src/hid/rgb_led.h **** #include "util/color.h"
   6:../../libDaisy/src/hid/rgb_led.h **** 
   7:../../libDaisy/src/hid/rgb_led.h **** namespace daisy
   8:../../libDaisy/src/hid/rgb_led.h **** {
   9:../../libDaisy/src/hid/rgb_led.h **** /** @addtogroup feedback
  10:../../libDaisy/src/hid/rgb_led.h ****     @{
  11:../../libDaisy/src/hid/rgb_led.h **** */
  12:../../libDaisy/src/hid/rgb_led.h **** 
  13:../../libDaisy/src/hid/rgb_led.h **** /** 3x LEDs configured as an RGB for ease of use. */
  14:../../libDaisy/src/hid/rgb_led.h **** class RgbLed
  15:../../libDaisy/src/hid/rgb_led.h **** {
  16:../../libDaisy/src/hid/rgb_led.h ****   public:
  17:../../libDaisy/src/hid/rgb_led.h ****     RgbLed() {}
  18:../../libDaisy/src/hid/rgb_led.h ****     ~RgbLed() {}
  94              		.loc 3 18 5 is_stmt 1 discriminator 12 view .LVU13
  95              	.LBB191:
  96              	.LBB192:
  97              	.LBI192:
  98              		.loc 1 25 5 discriminator 12 view .LVU14
  99              		.loc 1 25 5 is_stmt 0 discriminator 12 view .LVU15
 100              	.LBE192:
 101              	.LBB193:
 102              	.LBI193:
 103              		.loc 1 25 5 is_stmt 1 discriminator 12 view .LVU16
 104              		.loc 1 25 5 is_stmt 0 discriminator 12 view .LVU17
 105              	.LBE193:
 106              	.LBB194:
 107              	.LBI194:
 108              		.loc 1 25 5 is_stmt 1 discriminator 12 view .LVU18
 109              	.L6:
 110              		.loc 1 25 5 is_stmt 0 discriminator 12 view .LVU19
 111              	.LBE194:
 112              	.LBE191:
 113              	.LBE190:
 114              		.loc 2 68 19 discriminator 13 view .LVU20
 115 001c 9342     		cmp	r3, r2
 116 001e FCD1     		bne	.L11
 117              	.L5:
 118              		.loc 2 68 19 discriminator 14 view .LVU21
 119 0020 10F5A472 		adds	r2, r0, #328
 120 0024 03D0     		beq	.L7
ARM GAS  C:\Users\jonas\AppData\Local\Temp\ccpfU1Vn.s 			page 5


 121              	.L8:
 122              		.loc 2 68 19 discriminator 20 view .LVU22
 123 0026 9A42     		cmp	r2, r3
 124 0028 01D0     		beq	.L7
 125              		.loc 2 68 19 discriminator 19 view .LVU23
 126 002a 103B     		subs	r3, r3, #16
 127              	.LVL5:
 128              	.LBB195:
 129              	.LBI195:
 130              		.file 4 "../../libDaisy/src/hid/switch.h"
   1:../../libDaisy/src/hid/switch.h **** #pragma once
   2:../../libDaisy/src/hid/switch.h **** #ifndef DSY_SWITCH_H
   3:../../libDaisy/src/hid/switch.h **** #define DSY_SWITCH_H
   4:../../libDaisy/src/hid/switch.h **** #include "daisy_core.h"
   5:../../libDaisy/src/hid/switch.h **** #include "per/gpio.h"
   6:../../libDaisy/src/hid/switch.h **** #include "sys/system.h"
   7:../../libDaisy/src/hid/switch.h **** 
   8:../../libDaisy/src/hid/switch.h **** namespace daisy
   9:../../libDaisy/src/hid/switch.h **** {
  10:../../libDaisy/src/hid/switch.h **** /** 
  11:../../libDaisy/src/hid/switch.h ****     Generic Class for handling momentary/latching switches \n 
  12:../../libDaisy/src/hid/switch.h ****     Inspired/influenced by Mutable Instruments (pichenettes) Switch classes
  13:../../libDaisy/src/hid/switch.h ****     @author Stephen Hensley
  14:../../libDaisy/src/hid/switch.h ****     @date December 2019
  15:../../libDaisy/src/hid/switch.h ****     @ingroup controls
  16:../../libDaisy/src/hid/switch.h **** */
  17:../../libDaisy/src/hid/switch.h **** class Switch
  18:../../libDaisy/src/hid/switch.h **** {
  19:../../libDaisy/src/hid/switch.h ****   public:
  20:../../libDaisy/src/hid/switch.h ****     /** Specifies the expected behavior of the switch */
  21:../../libDaisy/src/hid/switch.h ****     enum Type
  22:../../libDaisy/src/hid/switch.h ****     {
  23:../../libDaisy/src/hid/switch.h ****         TYPE_TOGGLE,    /**< & */
  24:../../libDaisy/src/hid/switch.h ****         TYPE_MOMENTARY, /**< & */
  25:../../libDaisy/src/hid/switch.h ****     };
  26:../../libDaisy/src/hid/switch.h ****     /** Specifies whether the pressed is HIGH or LOW. */
  27:../../libDaisy/src/hid/switch.h ****     enum Polarity
  28:../../libDaisy/src/hid/switch.h ****     {
  29:../../libDaisy/src/hid/switch.h ****         POLARITY_NORMAL,   /**< & */
  30:../../libDaisy/src/hid/switch.h ****         POLARITY_INVERTED, /**< & */
  31:../../libDaisy/src/hid/switch.h ****     };
  32:../../libDaisy/src/hid/switch.h **** 
  33:../../libDaisy/src/hid/switch.h ****     /** Specifies whether to use built-in Pull Up/Down resistors to hold button at a given state wh
  34:../../libDaisy/src/hid/switch.h ****     enum Pull
  35:../../libDaisy/src/hid/switch.h ****     {
  36:../../libDaisy/src/hid/switch.h ****         PULL_UP,   /**< & */
  37:../../libDaisy/src/hid/switch.h ****         PULL_DOWN, /**< & */
  38:../../libDaisy/src/hid/switch.h ****         PULL_NONE, /**< & */
  39:../../libDaisy/src/hid/switch.h ****     };
  40:../../libDaisy/src/hid/switch.h **** 
  41:../../libDaisy/src/hid/switch.h ****     Switch() {}
  42:../../libDaisy/src/hid/switch.h ****     ~Switch() {}
 131              		.loc 4 42 5 is_stmt 1 discriminator 19 view .LVU24
 132              	.LBB196:
 133              		.loc 4 42 16 is_stmt 0 discriminator 19 view .LVU25
 134 002c FBE7     		b	.L8
 135              	.LVL6:
ARM GAS  C:\Users\jonas\AppData\Local\Temp\ccpfU1Vn.s 			page 6


 136              	.L7:
 137              		.loc 4 42 16 discriminator 19 view .LVU26
 138              	.LBE196:
 139              	.LBE195:
 140              	.LBB197:
 141              	.LBI197:
 142              		.file 5 "../../libDaisy/src/hid/ctrl.h"
   1:../../libDaisy/src/hid/ctrl.h **** #pragma once
   2:../../libDaisy/src/hid/ctrl.h **** #ifndef DSY_KNOB_H
   3:../../libDaisy/src/hid/ctrl.h **** #define DSY_KNOB_H /**< & */
   4:../../libDaisy/src/hid/ctrl.h **** #include <stdint.h>
   5:../../libDaisy/src/hid/ctrl.h **** 
   6:../../libDaisy/src/hid/ctrl.h **** #ifdef __cplusplus
   7:../../libDaisy/src/hid/ctrl.h **** namespace daisy
   8:../../libDaisy/src/hid/ctrl.h **** {
   9:../../libDaisy/src/hid/ctrl.h **** /**
  10:../../libDaisy/src/hid/ctrl.h ****     @brief Hardware Interface for control inputs \n 
  11:../../libDaisy/src/hid/ctrl.h ****     Primarily designed for ADC input controls such as \n 
  12:../../libDaisy/src/hid/ctrl.h ****     potentiometers, and control voltage. \n 
  13:../../libDaisy/src/hid/ctrl.h ****     @author Stephen Hensley
  14:../../libDaisy/src/hid/ctrl.h ****     @date November 2019
  15:../../libDaisy/src/hid/ctrl.h ****     @ingroup controls
  16:../../libDaisy/src/hid/ctrl.h **** */
  17:../../libDaisy/src/hid/ctrl.h **** class AnalogControl
  18:../../libDaisy/src/hid/ctrl.h **** {
  19:../../libDaisy/src/hid/ctrl.h ****   public:
  20:../../libDaisy/src/hid/ctrl.h ****     /** Constructor */
  21:../../libDaisy/src/hid/ctrl.h ****     AnalogControl() {}
  22:../../libDaisy/src/hid/ctrl.h ****     /** destructor */
  23:../../libDaisy/src/hid/ctrl.h ****     ~AnalogControl() {}
 143              		.loc 5 23 5 is_stmt 1 discriminator 21 view .LVU27
 144              		.loc 5 23 5 is_stmt 0 discriminator 21 view .LVU28
 145              	.LBE197:
 146              		.loc 2 68 19 discriminator 21 view .LVU29
 147 002e 10F16802 		adds	r2, r0, #104
 148 0032 05D0     		beq	.L9
 149              		.loc 2 68 19 discriminator 22 view .LVU30
 150 0034 00F59473 		add	r3, r0, #296
 151              	.L10:
 152              		.loc 2 68 19 discriminator 27 view .LVU31
 153 0038 9A42     		cmp	r2, r3
 154 003a 01D0     		beq	.L9
 155              		.loc 2 68 19 discriminator 26 view .LVU32
 156 003c 203B     		subs	r3, r3, #32
 157              	.LVL7:
 158              	.LBB198:
 159              	.LBI198:
 160              		.loc 5 23 5 is_stmt 1 discriminator 26 view .LVU33
 161              	.LBB199:
 162              		.loc 5 23 23 is_stmt 0 discriminator 26 view .LVU34
 163 003e FBE7     		b	.L10
 164              	.LVL8:
 165              	.L9:
 166              		.loc 5 23 23 discriminator 26 view .LVU35
 167              	.LBE199:
 168              	.LBE198:
 169              	.LBB200:
ARM GAS  C:\Users\jonas\AppData\Local\Temp\ccpfU1Vn.s 			page 7


 170              	.LBI200:
 171              		.file 6 "../../libDaisy/src/hid/encoder.h"
   1:../../libDaisy/src/hid/encoder.h **** #pragma once
   2:../../libDaisy/src/hid/encoder.h **** #ifndef DSY_ENCODER_H
   3:../../libDaisy/src/hid/encoder.h **** #define DSY_ENCODER_H
   4:../../libDaisy/src/hid/encoder.h **** #include "daisy_core.h"
   5:../../libDaisy/src/hid/encoder.h **** #include "per/gpio.h"
   6:../../libDaisy/src/hid/encoder.h **** #include "hid/switch.h"
   7:../../libDaisy/src/hid/encoder.h **** 
   8:../../libDaisy/src/hid/encoder.h **** namespace daisy
   9:../../libDaisy/src/hid/encoder.h **** {
  10:../../libDaisy/src/hid/encoder.h **** /** 
  11:../../libDaisy/src/hid/encoder.h ****     @brief Generic Class for handling Quadrature Encoders \n 
  12:../../libDaisy/src/hid/encoder.h ****     Inspired/influenced by Mutable Instruments (pichenettes) Encoder classes
  13:../../libDaisy/src/hid/encoder.h ****     @author Stephen Hensley
  14:../../libDaisy/src/hid/encoder.h ****     @date December 2019
  15:../../libDaisy/src/hid/encoder.h ****     @ingroup controls
  16:../../libDaisy/src/hid/encoder.h **** */
  17:../../libDaisy/src/hid/encoder.h **** class Encoder
  18:../../libDaisy/src/hid/encoder.h **** {
  19:../../libDaisy/src/hid/encoder.h ****   public:
  20:../../libDaisy/src/hid/encoder.h ****     Encoder() {}
  21:../../libDaisy/src/hid/encoder.h ****     ~Encoder() {}
 172              		.loc 6 21 5 is_stmt 1 discriminator 28 view .LVU36
 173              	.LBB201:
 174              	.LBI201:
 175              		.loc 4 42 5 discriminator 28 view .LVU37
 176              		.loc 4 42 5 is_stmt 0 discriminator 28 view .LVU38
 177              	.LBE201:
 178              	.LBE200:
 179              	.LBB202:
 180              	.LBI202:
 181              		.file 7 "../../libDaisy/src/daisy_seed.h"
   1:../../libDaisy/src/daisy_seed.h **** #pragma once
   2:../../libDaisy/src/daisy_seed.h **** #ifndef DSY_SEED_H
   3:../../libDaisy/src/daisy_seed.h **** #define DSY_SEED_H
   4:../../libDaisy/src/daisy_seed.h **** 
   5:../../libDaisy/src/daisy_seed.h **** #include "daisy.h"
   6:../../libDaisy/src/daisy_seed.h **** 
   7:../../libDaisy/src/daisy_seed.h **** //Uncomment this out if you're still using the rev2 hardware
   8:../../libDaisy/src/daisy_seed.h **** //#define SEED_REV2
   9:../../libDaisy/src/daisy_seed.h **** 
  10:../../libDaisy/src/daisy_seed.h **** namespace daisy
  11:../../libDaisy/src/daisy_seed.h **** {
  12:../../libDaisy/src/daisy_seed.h **** /**
  13:../../libDaisy/src/daisy_seed.h ****    @brief This is the higher-level interface for the Daisy board. \n 
  14:../../libDaisy/src/daisy_seed.h ****     All basic peripheral configuration/initialization is setup here. \n
  15:../../libDaisy/src/daisy_seed.h **** 
  16:../../libDaisy/src/daisy_seed.h ****    @ingroup boards
  17:../../libDaisy/src/daisy_seed.h **** */
  18:../../libDaisy/src/daisy_seed.h **** class DaisySeed
  19:../../libDaisy/src/daisy_seed.h **** {
  20:../../libDaisy/src/daisy_seed.h ****   public:
  21:../../libDaisy/src/daisy_seed.h ****     DaisySeed() {}
  22:../../libDaisy/src/daisy_seed.h ****     ~DaisySeed() {}
 182              		.loc 7 22 5 is_stmt 1 discriminator 28 view .LVU39
 183              	.LBB203:
ARM GAS  C:\Users\jonas\AppData\Local\Temp\ccpfU1Vn.s 			page 8


 184              	.LBI203:
 185              		.file 8 "../../libDaisy/src/sys/system.h"
   1:../../libDaisy/src/sys/system.h **** #ifndef DSY_SYSTEM_H
   2:../../libDaisy/src/sys/system.h **** #define DSY_SYSTEM_H
   3:../../libDaisy/src/sys/system.h **** 
   4:../../libDaisy/src/sys/system.h **** #ifndef UNIT_TEST // for unit tests, a dummy implementation is provided below
   5:../../libDaisy/src/sys/system.h **** 
   6:../../libDaisy/src/sys/system.h **** #include <cstdint>
   7:../../libDaisy/src/sys/system.h **** #include "per/tim.h"
   8:../../libDaisy/src/sys/system.h **** 
   9:../../libDaisy/src/sys/system.h **** namespace daisy
  10:../../libDaisy/src/sys/system.h **** {
  11:../../libDaisy/src/sys/system.h **** /** A handle for interacting with the Core System.
  12:../../libDaisy/src/sys/system.h ****  ** This includes the Clock tree, MPU, global DMA initialization,
  13:../../libDaisy/src/sys/system.h ****  ** cache handling, and any other necessary global initiailzation
  14:../../libDaisy/src/sys/system.h ****  **
  15:../../libDaisy/src/sys/system.h ****  ** @author shensley
  16:../../libDaisy/src/sys/system.h ****  ** @ingroup system
  17:../../libDaisy/src/sys/system.h ****  */
  18:../../libDaisy/src/sys/system.h **** class System
  19:../../libDaisy/src/sys/system.h **** {
  20:../../libDaisy/src/sys/system.h ****   public:
  21:../../libDaisy/src/sys/system.h ****     /** Contains settings for initializing the System */
  22:../../libDaisy/src/sys/system.h ****     struct Config
  23:../../libDaisy/src/sys/system.h ****     {
  24:../../libDaisy/src/sys/system.h ****         /** Specifies the system clock frequency that feeds APB/AHB clocks, etc. */
  25:../../libDaisy/src/sys/system.h ****         enum class SysClkFreq
  26:../../libDaisy/src/sys/system.h ****         {
  27:../../libDaisy/src/sys/system.h ****             FREQ_400MHZ,
  28:../../libDaisy/src/sys/system.h ****             FREQ_480MHZ,
  29:../../libDaisy/src/sys/system.h ****         };
  30:../../libDaisy/src/sys/system.h **** 
  31:../../libDaisy/src/sys/system.h ****         /** Method to call on the struct to set to defaults
  32:../../libDaisy/src/sys/system.h ****          ** CPU Freq set to 400MHz
  33:../../libDaisy/src/sys/system.h ****          ** Cache Enabled
  34:../../libDaisy/src/sys/system.h ****          ** */
  35:../../libDaisy/src/sys/system.h ****         void Defaults()
  36:../../libDaisy/src/sys/system.h ****         {
  37:../../libDaisy/src/sys/system.h ****             cpu_freq    = SysClkFreq::FREQ_400MHZ;
  38:../../libDaisy/src/sys/system.h ****             use_dcache  = true;
  39:../../libDaisy/src/sys/system.h ****             use_icache  = true;
  40:../../libDaisy/src/sys/system.h ****             skip_clocks = false;
  41:../../libDaisy/src/sys/system.h ****         }
  42:../../libDaisy/src/sys/system.h **** 
  43:../../libDaisy/src/sys/system.h ****         /** Method to call on the struct to set to boost mode:
  44:../../libDaisy/src/sys/system.h ****          ** CPU Freq set to 480MHz
  45:../../libDaisy/src/sys/system.h ****          ** Cache Enabled
  46:../../libDaisy/src/sys/system.h ****          ** */
  47:../../libDaisy/src/sys/system.h ****         void Boost()
  48:../../libDaisy/src/sys/system.h ****         {
  49:../../libDaisy/src/sys/system.h ****             cpu_freq    = SysClkFreq::FREQ_480MHZ;
  50:../../libDaisy/src/sys/system.h ****             use_dcache  = true;
  51:../../libDaisy/src/sys/system.h ****             use_icache  = true;
  52:../../libDaisy/src/sys/system.h ****             skip_clocks = false;
  53:../../libDaisy/src/sys/system.h ****         }
  54:../../libDaisy/src/sys/system.h **** 
  55:../../libDaisy/src/sys/system.h ****         SysClkFreq cpu_freq;
ARM GAS  C:\Users\jonas\AppData\Local\Temp\ccpfU1Vn.s 			page 9


  56:../../libDaisy/src/sys/system.h ****         bool       use_dcache;
  57:../../libDaisy/src/sys/system.h ****         bool       use_icache;
  58:../../libDaisy/src/sys/system.h ****         bool       skip_clocks;
  59:../../libDaisy/src/sys/system.h ****     };
  60:../../libDaisy/src/sys/system.h **** 
  61:../../libDaisy/src/sys/system.h ****     /** Describes the different regions of memory available to the Daisy */
  62:../../libDaisy/src/sys/system.h ****     enum MemoryRegion
  63:../../libDaisy/src/sys/system.h ****     {
  64:../../libDaisy/src/sys/system.h ****         INTERNAL_FLASH = 0,
  65:../../libDaisy/src/sys/system.h ****         ITCMRAM,
  66:../../libDaisy/src/sys/system.h ****         DTCMRAM,
  67:../../libDaisy/src/sys/system.h ****         SRAM_D1,
  68:../../libDaisy/src/sys/system.h ****         SRAM_D2,
  69:../../libDaisy/src/sys/system.h ****         SRAM_D3,
  70:../../libDaisy/src/sys/system.h ****         SDRAM,
  71:../../libDaisy/src/sys/system.h ****         QSPI,
  72:../../libDaisy/src/sys/system.h ****         INVALID_ADDRESS,
  73:../../libDaisy/src/sys/system.h ****     };
  74:../../libDaisy/src/sys/system.h **** 
  75:../../libDaisy/src/sys/system.h ****     /** Bootloader struct for controlling bootloading parameters */
  76:../../libDaisy/src/sys/system.h ****     struct BootInfo
  77:../../libDaisy/src/sys/system.h ****     {
  78:../../libDaisy/src/sys/system.h ****         enum class Type : uint32_t
  79:../../libDaisy/src/sys/system.h ****         {
  80:../../libDaisy/src/sys/system.h ****             INVALID      = 0x00000000,
  81:../../libDaisy/src/sys/system.h ****             JUMP         = 0xDEADBEEF,
  82:../../libDaisy/src/sys/system.h ****             SKIP_TIMEOUT = 0x5AFEB007,
  83:../../libDaisy/src/sys/system.h ****             INF_TIMEOUT  = 0xB0074EFA,
  84:../../libDaisy/src/sys/system.h ****         } status;
  85:../../libDaisy/src/sys/system.h ****         uint32_t data;
  86:../../libDaisy/src/sys/system.h ****         enum class Version : uint32_t
  87:../../libDaisy/src/sys/system.h ****         {
  88:../../libDaisy/src/sys/system.h ****             LT_v6_0 = 0, // Less than v6.0
  89:../../libDaisy/src/sys/system.h ****             NONE,        // No bootloader present
  90:../../libDaisy/src/sys/system.h ****             v6_0,        // v6.0
  91:../../libDaisy/src/sys/system.h ****             v6_1,        // v6.1 or greater
  92:../../libDaisy/src/sys/system.h ****             LAST
  93:../../libDaisy/src/sys/system.h ****         } version;
  94:../../libDaisy/src/sys/system.h ****     };
  95:../../libDaisy/src/sys/system.h **** 
  96:../../libDaisy/src/sys/system.h ****     System() {}
  97:../../libDaisy/src/sys/system.h ****     ~System() {}
 186              		.loc 8 97 5 discriminator 28 view .LVU40
 187              		.loc 8 97 5 is_stmt 0 discriminator 28 view .LVU41
 188              	.LBE203:
 189              	.LBB204:
 190              	.LBI204:
 191              		.file 9 "../../libDaisy/src/hid/usb.h"
   1:../../libDaisy/src/hid/usb.h **** #pragma once
   2:../../libDaisy/src/hid/usb.h **** #ifndef DSY_HID_USB_H
   3:../../libDaisy/src/hid/usb.h **** #define DSY_HID_USB_H
   4:../../libDaisy/src/hid/usb.h **** #include <stdint.h>
   5:../../libDaisy/src/hid/usb.h **** #include <stdlib.h>
   6:../../libDaisy/src/hid/usb.h **** 
   7:../../libDaisy/src/hid/usb.h **** namespace daisy
   8:../../libDaisy/src/hid/usb.h **** /** @addtogroup human_interface
   9:../../libDaisy/src/hid/usb.h ****     @{
ARM GAS  C:\Users\jonas\AppData\Local\Temp\ccpfU1Vn.s 			page 10


  10:../../libDaisy/src/hid/usb.h **** */
  11:../../libDaisy/src/hid/usb.h **** 
  12:../../libDaisy/src/hid/usb.h **** {
  13:../../libDaisy/src/hid/usb.h **** /** 
  14:../../libDaisy/src/hid/usb.h ****     @brief Interface for initializing and using the USB Peripherals on the daisy
  15:../../libDaisy/src/hid/usb.h ****     @author Stephen Hensley
  16:../../libDaisy/src/hid/usb.h ****     @date December 2019
  17:../../libDaisy/src/hid/usb.h **** */
  18:../../libDaisy/src/hid/usb.h **** class UsbHandle
  19:../../libDaisy/src/hid/usb.h **** {
  20:../../libDaisy/src/hid/usb.h ****   public:
  21:../../libDaisy/src/hid/usb.h ****     /** Return values for USBHandle Functions */
  22:../../libDaisy/src/hid/usb.h ****     enum class Result
  23:../../libDaisy/src/hid/usb.h ****     {
  24:../../libDaisy/src/hid/usb.h ****         OK,
  25:../../libDaisy/src/hid/usb.h ****         ERR,
  26:../../libDaisy/src/hid/usb.h ****     };
  27:../../libDaisy/src/hid/usb.h **** 
  28:../../libDaisy/src/hid/usb.h ****     /** Specified which of the two USB Peripherals to initialize. */
  29:../../libDaisy/src/hid/usb.h ****     enum UsbPeriph
  30:../../libDaisy/src/hid/usb.h ****     {
  31:../../libDaisy/src/hid/usb.h ****         FS_INTERNAL, /**< Internal pin */
  32:../../libDaisy/src/hid/usb.h ****         FS_EXTERNAL, /**< FS External D+ pin is Pin 38 (GPIO32). FS External D- pin is Pin 37 (GPIO
  33:../../libDaisy/src/hid/usb.h ****         FS_BOTH,     /**< Both */
  34:../../libDaisy/src/hid/usb.h ****     };
  35:../../libDaisy/src/hid/usb.h **** 
  36:../../libDaisy/src/hid/usb.h **** 
  37:../../libDaisy/src/hid/usb.h ****     /** Function called upon reception of a buffer */
  38:../../libDaisy/src/hid/usb.h ****     typedef void (*ReceiveCallback)(uint8_t* buff, uint32_t* len);
  39:../../libDaisy/src/hid/usb.h **** 
  40:../../libDaisy/src/hid/usb.h ****     UsbHandle() {}
  41:../../libDaisy/src/hid/usb.h **** 
  42:../../libDaisy/src/hid/usb.h ****     ~UsbHandle() {}
 192              		.loc 9 42 5 is_stmt 1 discriminator 28 view .LVU42
 193              		.loc 9 42 5 is_stmt 0 discriminator 28 view .LVU43
 194              	.LBE204:
 195              	.LBB205:
 196              	.LBI205:
 197              		.file 10 "../../libDaisy/src/per/adc.h"
   1:../../libDaisy/src/per/adc.h **** #pragma once
   2:../../libDaisy/src/per/adc.h **** #ifndef DSY_ADC_H
   3:../../libDaisy/src/per/adc.h **** #define DSY_ADC_H /**< Macro */
   4:../../libDaisy/src/per/adc.h **** #include <stdint.h>
   5:../../libDaisy/src/per/adc.h **** #include <stdlib.h>
   6:../../libDaisy/src/per/adc.h **** #include "daisy_core.h"
   7:../../libDaisy/src/per/adc.h **** #include "per/gpio.h"
   8:../../libDaisy/src/per/adc.h **** 
   9:../../libDaisy/src/per/adc.h **** #define DSY_ADC_MAX_CHANNELS 16 /**< Maximum number of ADC channels */
  10:../../libDaisy/src/per/adc.h **** 
  11:../../libDaisy/src/per/adc.h **** namespace daisy
  12:../../libDaisy/src/per/adc.h **** {
  13:../../libDaisy/src/per/adc.h **** /** @addtogroup per_analog
  14:../../libDaisy/src/per/adc.h ****     @{
  15:../../libDaisy/src/per/adc.h **** */
  16:../../libDaisy/src/per/adc.h **** 
  17:../../libDaisy/src/per/adc.h **** /* While there may not be many configuration options here,
  18:../../libDaisy/src/per/adc.h **** using a struct like this allows us to add more configuration
ARM GAS  C:\Users\jonas\AppData\Local\Temp\ccpfU1Vn.s 			page 11


  19:../../libDaisy/src/per/adc.h **** later without breaking existing functionality.
  20:../../libDaisy/src/per/adc.h **** */
  21:../../libDaisy/src/per/adc.h **** 
  22:../../libDaisy/src/per/adc.h **** /** @brief   Configuration Structure for an ADC Channel 
  23:../../libDaisy/src/per/adc.h ****  *  @details This can be used to configure a a single input, 
  24:../../libDaisy/src/per/adc.h ****  *           or a multiplexed input, allowing up to 8 inputs on 
  25:../../libDaisy/src/per/adc.h ****  *           one channel.
  26:../../libDaisy/src/per/adc.h ****  *  @note    Sharing data lines to multiple muxes _is_ possible, but
  27:../../libDaisy/src/per/adc.h ****  *           each channel sharing data lines must be set to the maximum
  28:../../libDaisy/src/per/adc.h ****  *           number of channels, even if some multiplexers have fewer
  29:../../libDaisy/src/per/adc.h ****  *           inputs connected.
  30:../../libDaisy/src/per/adc.h **** */
  31:../../libDaisy/src/per/adc.h **** struct AdcChannelConfig
  32:../../libDaisy/src/per/adc.h **** {
  33:../../libDaisy/src/per/adc.h ****     /** Which pin to use for multiplexing */
  34:../../libDaisy/src/per/adc.h ****     enum MuxPin
  35:../../libDaisy/src/per/adc.h ****     {
  36:../../libDaisy/src/per/adc.h ****         MUX_SEL_0,    /**< & */
  37:../../libDaisy/src/per/adc.h ****         MUX_SEL_1,    /**< & */
  38:../../libDaisy/src/per/adc.h ****         MUX_SEL_2,    /**< & */
  39:../../libDaisy/src/per/adc.h ****         MUX_SEL_LAST, /**< & */
  40:../../libDaisy/src/per/adc.h ****     };
  41:../../libDaisy/src/per/adc.h **** 
  42:../../libDaisy/src/per/adc.h ****     /** \brief per channel conversion speed added to fixed time based on bitdepth, etc. */
  43:../../libDaisy/src/per/adc.h ****     enum ConversionSpeed
  44:../../libDaisy/src/per/adc.h ****     {
  45:../../libDaisy/src/per/adc.h ****         SPEED_1CYCLES_5,
  46:../../libDaisy/src/per/adc.h ****         SPEED_2CYCLES_5,
  47:../../libDaisy/src/per/adc.h ****         SPEED_8CYCLES_5,
  48:../../libDaisy/src/per/adc.h ****         SPEED_16CYCLES_5,
  49:../../libDaisy/src/per/adc.h ****         SPEED_32CYCLES_5,
  50:../../libDaisy/src/per/adc.h ****         SPEED_64CYCLES_5,
  51:../../libDaisy/src/per/adc.h ****         SPEED_387CYCLES_5,
  52:../../libDaisy/src/per/adc.h ****         SPEED_810CYCLES_5,
  53:../../libDaisy/src/per/adc.h ****     };
  54:../../libDaisy/src/per/adc.h **** 
  55:../../libDaisy/src/per/adc.h ****     /** Initializes a single ADC pin as an ADC. 
  56:../../libDaisy/src/per/adc.h ****     \param pin Pin to init.
  57:../../libDaisy/src/per/adc.h ****     \param speed conversion speed for this pin defaults to 8.5 cycles
  58:../../libDaisy/src/per/adc.h ****      */
  59:../../libDaisy/src/per/adc.h ****     void InitSingle(dsy_gpio_pin pin, ConversionSpeed speed = SPEED_8CYCLES_5);
  60:../../libDaisy/src/per/adc.h **** 
  61:../../libDaisy/src/per/adc.h ****     /** 
  62:../../libDaisy/src/per/adc.h ****     Initializes a single ADC pin as a Multiplexed ADC.
  63:../../libDaisy/src/per/adc.h ****     Requires a CD405X Multiplexer connected to the pin.
  64:../../libDaisy/src/per/adc.h ****     You only need to supply the mux pins that are required,
  65:../../libDaisy/src/per/adc.h ****     e.g. a 4052 mux would only require mux_0 and mux_1.
  66:../../libDaisy/src/per/adc.h ****     Internal Callbacks handle the pin addressing.
  67:../../libDaisy/src/per/adc.h ****     \param adc_pin &
  68:../../libDaisy/src/per/adc.h ****     \param mux_channels must be 1-8
  69:../../libDaisy/src/per/adc.h ****     \param mux_0 First mux pin
  70:../../libDaisy/src/per/adc.h ****     \param mux_1 Second mux pin
  71:../../libDaisy/src/per/adc.h ****     \param mux_2 Third mux pin
  72:../../libDaisy/src/per/adc.h ****     \param speed conversion speed for this pin defaults to 8.5 cycles
  73:../../libDaisy/src/per/adc.h ****     */
  74:../../libDaisy/src/per/adc.h ****     void InitMux(dsy_gpio_pin    adc_pin,
  75:../../libDaisy/src/per/adc.h ****                  size_t          mux_channels,
ARM GAS  C:\Users\jonas\AppData\Local\Temp\ccpfU1Vn.s 			page 12


  76:../../libDaisy/src/per/adc.h ****                  dsy_gpio_pin    mux_0,
  77:../../libDaisy/src/per/adc.h ****                  dsy_gpio_pin    mux_1 = {DSY_GPIOX, 0},
  78:../../libDaisy/src/per/adc.h ****                  dsy_gpio_pin    mux_2 = {DSY_GPIOX, 0},
  79:../../libDaisy/src/per/adc.h ****                  ConversionSpeed speed = SPEED_8CYCLES_5);
  80:../../libDaisy/src/per/adc.h **** 
  81:../../libDaisy/src/per/adc.h ****     dsy_gpio        pin_;                   /**< & */
  82:../../libDaisy/src/per/adc.h ****     dsy_gpio        mux_pin_[MUX_SEL_LAST]; /**< & */
  83:../../libDaisy/src/per/adc.h ****     uint8_t         mux_channels_;          /**< & */
  84:../../libDaisy/src/per/adc.h ****     ConversionSpeed speed_;
  85:../../libDaisy/src/per/adc.h **** };
  86:../../libDaisy/src/per/adc.h **** 
  87:../../libDaisy/src/per/adc.h **** /**
  88:../../libDaisy/src/per/adc.h ****    @brief Handler for analog to digital conversion
  89:../../libDaisy/src/per/adc.h **** */
  90:../../libDaisy/src/per/adc.h **** class AdcHandle
  91:../../libDaisy/src/per/adc.h **** {
  92:../../libDaisy/src/per/adc.h ****   public:
  93:../../libDaisy/src/per/adc.h ****     /** Supported oversampling amounts */
  94:../../libDaisy/src/per/adc.h ****     enum OverSampling
  95:../../libDaisy/src/per/adc.h ****     {
  96:../../libDaisy/src/per/adc.h ****         OVS_NONE, /**< & */
  97:../../libDaisy/src/per/adc.h ****         OVS_4,    /**< & */
  98:../../libDaisy/src/per/adc.h ****         OVS_8,    /**< & */
  99:../../libDaisy/src/per/adc.h ****         OVS_16,   /**< & */
 100:../../libDaisy/src/per/adc.h ****         OVS_32,   /**< & */
 101:../../libDaisy/src/per/adc.h ****         OVS_64,   /**< & */
 102:../../libDaisy/src/per/adc.h ****         OVS_128,  /**< & */
 103:../../libDaisy/src/per/adc.h ****         OVS_256,  /**< & */
 104:../../libDaisy/src/per/adc.h ****         OVS_512,  /**< & */
 105:../../libDaisy/src/per/adc.h ****         OVS_1024, /**< & */
 106:../../libDaisy/src/per/adc.h ****         OVS_LAST, /**< & */
 107:../../libDaisy/src/per/adc.h ****     };
 108:../../libDaisy/src/per/adc.h **** 
 109:../../libDaisy/src/per/adc.h ****     AdcHandle() {}
 110:../../libDaisy/src/per/adc.h ****     ~AdcHandle() {}
 198              		.loc 10 110 5 is_stmt 1 discriminator 28 view .LVU44
 199              		.loc 10 110 5 is_stmt 0 discriminator 28 view .LVU45
 200              	.LBE205:
 201              	.LBB206:
 202              	.LBI206:
 203              		.file 11 "../../libDaisy/src/hid/audio.h"
   1:../../libDaisy/src/hid/audio.h **** #ifndef DSY_AUDIO_H
   2:../../libDaisy/src/hid/audio.h **** #define DSY_AUDIO_H /**< & */
   3:../../libDaisy/src/hid/audio.h **** 
   4:../../libDaisy/src/hid/audio.h **** #include "per/sai.h"
   5:../../libDaisy/src/hid/audio.h **** 
   6:../../libDaisy/src/hid/audio.h **** namespace daisy
   7:../../libDaisy/src/hid/audio.h **** {
   8:../../libDaisy/src/hid/audio.h **** /** @brief Audio Engine Handle
   9:../../libDaisy/src/hid/audio.h ****  *  @ingroup audio 
  10:../../libDaisy/src/hid/audio.h ****  *  @details This class allows for higher level access to an audio engine.
  11:../../libDaisy/src/hid/audio.h ****  *           If you're using a SOM like the DaisySeed or DaisyPatchSM (or any 
  12:../../libDaisy/src/hid/audio.h ****  *            board that includes one of those objects) then the intialization
  13:../../libDaisy/src/hid/audio.h ****  *            is already taken  care of.
  14:../../libDaisy/src/hid/audio.h ****  *           If you're setting up your own custom hardware, or need to make changes
  15:../../libDaisy/src/hid/audio.h ****  *           you will have to take the following steps:
  16:../../libDaisy/src/hid/audio.h ****  *             1. Create and Initialize an SaiHandle or two depending on your requirements
ARM GAS  C:\Users\jonas\AppData\Local\Temp\ccpfU1Vn.s 			page 13


  17:../../libDaisy/src/hid/audio.h ****  *             2. Initialize the Audio Handle with the desired settings and the Initialized SaiHand
  18:../../libDaisy/src/hid/audio.h ****  *             3. If the connected codec requires special configuration or initialization, do so
  19:../../libDaisy/src/hid/audio.h ****  *             4. Write a callback method using either the AudioCallback or the InterleavingAudioCa
  20:../../libDaisy/src/hid/audio.h ****  *             5. Start the Audio using one of the StartAudio function
  21:../../libDaisy/src/hid/audio.h ****  */
  22:../../libDaisy/src/hid/audio.h **** class AudioHandle
  23:../../libDaisy/src/hid/audio.h **** {
  24:../../libDaisy/src/hid/audio.h ****   public:
  25:../../libDaisy/src/hid/audio.h ****     /** Manually configurable details about the Audio Engine */
  26:../../libDaisy/src/hid/audio.h ****     /** TODO: Figure out how to get samplerate in here. */
  27:../../libDaisy/src/hid/audio.h ****     struct Config
  28:../../libDaisy/src/hid/audio.h ****     {
  29:../../libDaisy/src/hid/audio.h ****         /** number of samples to process per callback */
  30:../../libDaisy/src/hid/audio.h ****         size_t blocksize;
  31:../../libDaisy/src/hid/audio.h **** 
  32:../../libDaisy/src/hid/audio.h ****         /**< Sample rate of audio */
  33:../../libDaisy/src/hid/audio.h ****         SaiHandle::Config::SampleRate samplerate;
  34:../../libDaisy/src/hid/audio.h **** 
  35:../../libDaisy/src/hid/audio.h ****         /** factor for adjustment before and after callback for hardware that may have extra headro
  36:../../libDaisy/src/hid/audio.h ****         float postgain;
  37:../../libDaisy/src/hid/audio.h **** 
  38:../../libDaisy/src/hid/audio.h ****         /** factor for additional one-sided compensation to audio path for hardware that may
  39:../../libDaisy/src/hid/audio.h ****          *  have unequal input/output ranges
  40:../../libDaisy/src/hid/audio.h ****          */
  41:../../libDaisy/src/hid/audio.h ****         float output_compensation;
  42:../../libDaisy/src/hid/audio.h **** 
  43:../../libDaisy/src/hid/audio.h ****         /** Sets default values for config struct */
  44:../../libDaisy/src/hid/audio.h ****         Config()
  45:../../libDaisy/src/hid/audio.h ****         : blocksize(48),
  46:../../libDaisy/src/hid/audio.h ****           samplerate(SaiHandle::Config::SampleRate::SAI_48KHZ),
  47:../../libDaisy/src/hid/audio.h ****           postgain(1.f),
  48:../../libDaisy/src/hid/audio.h ****           output_compensation(1.f)
  49:../../libDaisy/src/hid/audio.h ****         {
  50:../../libDaisy/src/hid/audio.h ****         }
  51:../../libDaisy/src/hid/audio.h ****     };
  52:../../libDaisy/src/hid/audio.h **** 
  53:../../libDaisy/src/hid/audio.h ****     enum class Result
  54:../../libDaisy/src/hid/audio.h ****     {
  55:../../libDaisy/src/hid/audio.h ****         OK,
  56:../../libDaisy/src/hid/audio.h ****         ERR,
  57:../../libDaisy/src/hid/audio.h ****     };
  58:../../libDaisy/src/hid/audio.h **** 
  59:../../libDaisy/src/hid/audio.h ****     /** Non-Interleaving input buffer
  60:../../libDaisy/src/hid/audio.h ****      * Buffer arranged by float[chn][sample] 
  61:../../libDaisy/src/hid/audio.h ****      * const so that the user can't modify the input
  62:../../libDaisy/src/hid/audio.h ****      */
  63:../../libDaisy/src/hid/audio.h ****     typedef const float* const* InputBuffer;
  64:../../libDaisy/src/hid/audio.h **** 
  65:../../libDaisy/src/hid/audio.h ****     /** Non-Interleaving output buffer
  66:../../libDaisy/src/hid/audio.h ****      * Arranged by float[chn][sample] 
  67:../../libDaisy/src/hid/audio.h ****      */
  68:../../libDaisy/src/hid/audio.h ****     typedef float** OutputBuffer;
  69:../../libDaisy/src/hid/audio.h **** 
  70:../../libDaisy/src/hid/audio.h ****     /** Type for a Non-Interleaving audio callback 
  71:../../libDaisy/src/hid/audio.h ****      * Non-Interleaving audio callbacks in daisy will be of this type
  72:../../libDaisy/src/hid/audio.h ****      */
  73:../../libDaisy/src/hid/audio.h ****     typedef void (*AudioCallback)(InputBuffer  in,
ARM GAS  C:\Users\jonas\AppData\Local\Temp\ccpfU1Vn.s 			page 14


  74:../../libDaisy/src/hid/audio.h ****                                   OutputBuffer out,
  75:../../libDaisy/src/hid/audio.h ****                                   size_t       size);
  76:../../libDaisy/src/hid/audio.h **** 
  77:../../libDaisy/src/hid/audio.h ****     /** Interleaving Input buffer
  78:../../libDaisy/src/hid/audio.h ****      ** audio is prepared as { L0, R0, L1, R1, . . . LN, RN }]
  79:../../libDaisy/src/hid/audio.h ****      ** this is const, as the user shouldn't modify it
  80:../../libDaisy/src/hid/audio.h ****     */
  81:../../libDaisy/src/hid/audio.h ****     typedef const float* InterleavingInputBuffer;
  82:../../libDaisy/src/hid/audio.h **** 
  83:../../libDaisy/src/hid/audio.h ****     /** Interleaving Output buffer 
  84:../../libDaisy/src/hid/audio.h ****      ** audio is prepared as { L0, R0, L1, R1, . . . LN, RN }
  85:../../libDaisy/src/hid/audio.h ****     */
  86:../../libDaisy/src/hid/audio.h ****     typedef float* InterleavingOutputBuffer;
  87:../../libDaisy/src/hid/audio.h **** 
  88:../../libDaisy/src/hid/audio.h ****     /** Interleaving Audio Callback 
  89:../../libDaisy/src/hid/audio.h ****      * Interleaving audio callbacks in daisy must be of this type
  90:../../libDaisy/src/hid/audio.h ****      */
  91:../../libDaisy/src/hid/audio.h ****     typedef void (*InterleavingAudioCallback)(InterleavingInputBuffer  in,
  92:../../libDaisy/src/hid/audio.h ****                                               InterleavingOutputBuffer out,
  93:../../libDaisy/src/hid/audio.h ****                                               size_t                   size);
  94:../../libDaisy/src/hid/audio.h **** 
  95:../../libDaisy/src/hid/audio.h ****     AudioHandle() : pimpl_(nullptr) {}
  96:../../libDaisy/src/hid/audio.h ****     ~AudioHandle() {}
 204              		.loc 11 96 5 is_stmt 1 discriminator 28 view .LVU46
 205              		.loc 11 96 5 is_stmt 0 discriminator 28 view .LVU47
 206              	.LBE206:
 207              	.LBE202:
 208              	.LBE187:
 209              		.loc 2 68 20 discriminator 28 view .LVU48
 210 0040 7047     		bx	lr
 211              		.cfi_endproc
 212              	.LFE2567:
 214              		.weak	_ZN5daisy10DaisyPetalD1Ev
 215              		.thumb_set _ZN5daisy10DaisyPetalD1Ev,_ZN5daisy10DaisyPetalD2Ev
 216              		.section	.text._ZN7daisysp6ChorusD2Ev,"axG",%progbits,_ZN7daisysp6ChorusD5Ev,comdat
 217              		.align	1
 218              		.weak	_ZN7daisysp6ChorusD2Ev
 219              		.syntax unified
 220              		.thumb
 221              		.thumb_func
 222              		.fpu fpv5-d16
 224              	_ZN7daisysp6ChorusD2Ev:
 225              	.LVL9:
 226              	.LFB4385:
 227              		.file 12 "../../DaisySP/Source/Effects/chorus.h"
   1:../../DaisySP/Source/Effects/chorus.h **** /*
   2:../../DaisySP/Source/Effects/chorus.h **** Copyright (c) 2020 Electrosmith, Corp
   3:../../DaisySP/Source/Effects/chorus.h **** 
   4:../../DaisySP/Source/Effects/chorus.h **** Use of this source code is governed by an MIT-style
   5:../../DaisySP/Source/Effects/chorus.h **** license that can be found in the LICENSE file or at
   6:../../DaisySP/Source/Effects/chorus.h **** https://opensource.org/licenses/MIT.
   7:../../DaisySP/Source/Effects/chorus.h **** */
   8:../../DaisySP/Source/Effects/chorus.h **** 
   9:../../DaisySP/Source/Effects/chorus.h **** #pragma once
  10:../../DaisySP/Source/Effects/chorus.h **** #ifndef DSY_CHORUS_H
  11:../../DaisySP/Source/Effects/chorus.h **** #define DSY_CHORUS_H
  12:../../DaisySP/Source/Effects/chorus.h **** #ifdef __cplusplus
ARM GAS  C:\Users\jonas\AppData\Local\Temp\ccpfU1Vn.s 			page 15


  13:../../DaisySP/Source/Effects/chorus.h **** 
  14:../../DaisySP/Source/Effects/chorus.h **** #include <stdint.h>
  15:../../DaisySP/Source/Effects/chorus.h **** #include "Utility/delayline.h"
  16:../../DaisySP/Source/Effects/chorus.h **** 
  17:../../DaisySP/Source/Effects/chorus.h **** /** @file chorus.h */
  18:../../DaisySP/Source/Effects/chorus.h **** 
  19:../../DaisySP/Source/Effects/chorus.h **** namespace daisysp
  20:../../DaisySP/Source/Effects/chorus.h **** {
  21:../../DaisySP/Source/Effects/chorus.h **** /**  
  22:../../DaisySP/Source/Effects/chorus.h ****     @brief Single Chorus engine. Used in Chorus.
  23:../../DaisySP/Source/Effects/chorus.h ****     @author Ben Sergentanis
  24:../../DaisySP/Source/Effects/chorus.h **** */
  25:../../DaisySP/Source/Effects/chorus.h **** class ChorusEngine
  26:../../DaisySP/Source/Effects/chorus.h **** {
  27:../../DaisySP/Source/Effects/chorus.h ****   public:
  28:../../DaisySP/Source/Effects/chorus.h ****     ChorusEngine() {}
  29:../../DaisySP/Source/Effects/chorus.h ****     ~ChorusEngine() {}
  30:../../DaisySP/Source/Effects/chorus.h **** 
  31:../../DaisySP/Source/Effects/chorus.h ****     /** Initialize the module
  32:../../DaisySP/Source/Effects/chorus.h ****         \param sample_rate Audio engine sample rate.
  33:../../DaisySP/Source/Effects/chorus.h ****     */
  34:../../DaisySP/Source/Effects/chorus.h ****     void Init(float sample_rate);
  35:../../DaisySP/Source/Effects/chorus.h **** 
  36:../../DaisySP/Source/Effects/chorus.h ****     /** Get the next sample
  37:../../DaisySP/Source/Effects/chorus.h ****         \param in Sample to process
  38:../../DaisySP/Source/Effects/chorus.h ****     */
  39:../../DaisySP/Source/Effects/chorus.h ****     float Process(float in);
  40:../../DaisySP/Source/Effects/chorus.h **** 
  41:../../DaisySP/Source/Effects/chorus.h ****     /** How much to modulate the delay by.
  42:../../DaisySP/Source/Effects/chorus.h ****         \param depth Works 0-1.
  43:../../DaisySP/Source/Effects/chorus.h ****     */
  44:../../DaisySP/Source/Effects/chorus.h ****     void SetLfoDepth(float depth);
  45:../../DaisySP/Source/Effects/chorus.h **** 
  46:../../DaisySP/Source/Effects/chorus.h ****     /** Set lfo frequency.
  47:../../DaisySP/Source/Effects/chorus.h ****         \param freq Frequency in Hz
  48:../../DaisySP/Source/Effects/chorus.h ****     */
  49:../../DaisySP/Source/Effects/chorus.h ****     void SetLfoFreq(float freq);
  50:../../DaisySP/Source/Effects/chorus.h **** 
  51:../../DaisySP/Source/Effects/chorus.h ****     /** Set the internal delay rate. 
  52:../../DaisySP/Source/Effects/chorus.h ****         \param delay Tuned for 0-1. Maps to .1 to 50 ms.
  53:../../DaisySP/Source/Effects/chorus.h ****     */
  54:../../DaisySP/Source/Effects/chorus.h ****     void SetDelay(float delay);
  55:../../DaisySP/Source/Effects/chorus.h **** 
  56:../../DaisySP/Source/Effects/chorus.h ****     /** Set the delay time in ms.
  57:../../DaisySP/Source/Effects/chorus.h ****         \param ms Delay time in ms, 0 to 50 ms.
  58:../../DaisySP/Source/Effects/chorus.h ****     */
  59:../../DaisySP/Source/Effects/chorus.h ****     void SetDelayMs(float ms);
  60:../../DaisySP/Source/Effects/chorus.h **** 
  61:../../DaisySP/Source/Effects/chorus.h ****     /** Set the feedback amount.
  62:../../DaisySP/Source/Effects/chorus.h ****         \param feedback Amount from 0-1.
  63:../../DaisySP/Source/Effects/chorus.h ****     */
  64:../../DaisySP/Source/Effects/chorus.h ****     void SetFeedback(float feedback);
  65:../../DaisySP/Source/Effects/chorus.h **** 
  66:../../DaisySP/Source/Effects/chorus.h ****   private:
  67:../../DaisySP/Source/Effects/chorus.h ****     float                    sample_rate_;
  68:../../DaisySP/Source/Effects/chorus.h ****     static constexpr int32_t kDelayLength
  69:../../DaisySP/Source/Effects/chorus.h ****         = 2400; // 50 ms at 48kHz = .05 * 48000
ARM GAS  C:\Users\jonas\AppData\Local\Temp\ccpfU1Vn.s 			page 16


  70:../../DaisySP/Source/Effects/chorus.h **** 
  71:../../DaisySP/Source/Effects/chorus.h ****     //triangle lfos
  72:../../DaisySP/Source/Effects/chorus.h ****     float lfo_phase_;
  73:../../DaisySP/Source/Effects/chorus.h ****     float lfo_freq_;
  74:../../DaisySP/Source/Effects/chorus.h ****     float lfo_amp_;
  75:../../DaisySP/Source/Effects/chorus.h **** 
  76:../../DaisySP/Source/Effects/chorus.h ****     float feedback_;
  77:../../DaisySP/Source/Effects/chorus.h **** 
  78:../../DaisySP/Source/Effects/chorus.h ****     float delay_;
  79:../../DaisySP/Source/Effects/chorus.h **** 
  80:../../DaisySP/Source/Effects/chorus.h ****     DelayLine<float, kDelayLength> del_;
  81:../../DaisySP/Source/Effects/chorus.h **** 
  82:../../DaisySP/Source/Effects/chorus.h ****     float ProcessLfo();
  83:../../DaisySP/Source/Effects/chorus.h **** };
  84:../../DaisySP/Source/Effects/chorus.h **** 
  85:../../DaisySP/Source/Effects/chorus.h **** //wraps up all of the chorus engines
  86:../../DaisySP/Source/Effects/chorus.h **** /**  
  87:../../DaisySP/Source/Effects/chorus.h ****     @brief Chorus Effect.
  88:../../DaisySP/Source/Effects/chorus.h ****     @author Ben Sergentanis
  89:../../DaisySP/Source/Effects/chorus.h ****     @date Jan 2021
  90:../../DaisySP/Source/Effects/chorus.h ****     Based on https://www.izotope.com/en/learn/understanding-chorus-flangers-and-phasers-in-audio-pr
  91:../../DaisySP/Source/Effects/chorus.h ****     and https://www.researchgate.net/publication/236629475_Implementing_Professional_Audio_Effects_
  92:../../DaisySP/Source/Effects/chorus.h **** */
  93:../../DaisySP/Source/Effects/chorus.h **** class Chorus
  94:../../DaisySP/Source/Effects/chorus.h **** {
  95:../../DaisySP/Source/Effects/chorus.h ****   public:
  96:../../DaisySP/Source/Effects/chorus.h ****     Chorus() {}
  97:../../DaisySP/Source/Effects/chorus.h ****     ~Chorus() {}
 228              		.loc 12 97 5 is_stmt 1 view -0
 229              		.cfi_startproc
 230              		@ args = 0, pretend = 0, frame = 0
 231              		@ frame_needed = 0, uses_anonymous_args = 0
 232              		@ link register save eliminated.
 233              	.LBB207:
 234              		.loc 12 97 15 is_stmt 0 view .LVU50
 235 0000 0246     		mov	r2, r0
 236 0002 40B1     		cbz	r0, .L13
 237              		.loc 12 97 15 discriminator 1 view .LVU51
 238 0004 44F64833 		movw	r3, #19272
 239 0008 0344     		add	r3, r3, r0
 240 000a 02E0     		b	.L14
 241              	.L15:
 242              		.loc 12 97 15 discriminator 5 view .LVU52
 243 000c A3F51653 		sub	r3, r3, #9600
 244 0010 243B     		subs	r3, r3, #36
 245              	.LVL10:
 246              	.LBB208:
 247              	.LBI208:
  29:../../DaisySP/Source/Effects/chorus.h **** 
 248              		.loc 12 29 5 is_stmt 1 discriminator 5 view .LVU53
 249              	.LBB209:
 250              	.LBB210:
 251              	.LBI210:
 252              		.file 13 "../../DaisySP/Source/Utility/delayline.h"
   1:../../DaisySP/Source/Utility/delayline.h **** /*
   2:../../DaisySP/Source/Utility/delayline.h **** Copyright (c) 2020 Electrosmith, Corp
   3:../../DaisySP/Source/Utility/delayline.h **** 
ARM GAS  C:\Users\jonas\AppData\Local\Temp\ccpfU1Vn.s 			page 17


   4:../../DaisySP/Source/Utility/delayline.h **** Use of this source code is governed by an MIT-style
   5:../../DaisySP/Source/Utility/delayline.h **** license that can be found in the LICENSE file or at
   6:../../DaisySP/Source/Utility/delayline.h **** https://opensource.org/licenses/MIT.
   7:../../DaisySP/Source/Utility/delayline.h **** */
   8:../../DaisySP/Source/Utility/delayline.h **** 
   9:../../DaisySP/Source/Utility/delayline.h **** #pragma once
  10:../../DaisySP/Source/Utility/delayline.h **** #ifndef DSY_DELAY_H
  11:../../DaisySP/Source/Utility/delayline.h **** #define DSY_DELAY_H
  12:../../DaisySP/Source/Utility/delayline.h **** #include <stdlib.h>
  13:../../DaisySP/Source/Utility/delayline.h **** #include <stdint.h>
  14:../../DaisySP/Source/Utility/delayline.h **** namespace daisysp
  15:../../DaisySP/Source/Utility/delayline.h **** {
  16:../../DaisySP/Source/Utility/delayline.h **** /** Simple Delay line.
  17:../../DaisySP/Source/Utility/delayline.h **** November 2019
  18:../../DaisySP/Source/Utility/delayline.h **** 
  19:../../DaisySP/Source/Utility/delayline.h **** Converted to Template December 2019
  20:../../DaisySP/Source/Utility/delayline.h **** 
  21:../../DaisySP/Source/Utility/delayline.h **** declaration example: (1 second of floats)
  22:../../DaisySP/Source/Utility/delayline.h **** 
  23:../../DaisySP/Source/Utility/delayline.h **** DelayLine<float, SAMPLE_RATE> del;
  24:../../DaisySP/Source/Utility/delayline.h **** 
  25:../../DaisySP/Source/Utility/delayline.h **** By: shensley
  26:../../DaisySP/Source/Utility/delayline.h **** */
  27:../../DaisySP/Source/Utility/delayline.h **** template <typename T, size_t max_size>
  28:../../DaisySP/Source/Utility/delayline.h **** class DelayLine
  29:../../DaisySP/Source/Utility/delayline.h **** {
  30:../../DaisySP/Source/Utility/delayline.h ****   public:
  31:../../DaisySP/Source/Utility/delayline.h ****     DelayLine() {}
  32:../../DaisySP/Source/Utility/delayline.h ****     ~DelayLine() {}
 253              		.loc 13 32 5 discriminator 5 view .LVU54
 254              	.L14:
 255              		.loc 13 32 5 is_stmt 0 discriminator 5 view .LVU55
 256              	.LBE210:
 257              	.LBE209:
 258              	.LBE208:
 259              		.loc 12 97 15 discriminator 6 view .LVU56
 260 0012 9A42     		cmp	r2, r3
 261 0014 FAD1     		bne	.L15
 262              	.L13:
 263              		.loc 12 97 15 discriminator 6 view .LVU57
 264              	.LBE207:
 265              		.loc 12 97 16 discriminator 7 view .LVU58
 266 0016 1046     		mov	r0, r2
 267              	.LVL11:
 268              		.loc 12 97 16 discriminator 7 view .LVU59
 269 0018 7047     		bx	lr
 270              		.cfi_endproc
 271              	.LFE4385:
 273              		.weak	_ZN7daisysp6ChorusD1Ev
 274              		.thumb_set _ZN7daisysp6ChorusD1Ev,_ZN7daisysp6ChorusD2Ev
 275              		.section	.text._Z13pedalControlsv,"ax",%progbits
 276              		.align	1
 277              		.global	_Z13pedalControlsv
 278              		.syntax unified
 279              		.thumb
 280              		.thumb_func
 281              		.fpu fpv5-d16
ARM GAS  C:\Users\jonas\AppData\Local\Temp\ccpfU1Vn.s 			page 18


 283              	_Z13pedalControlsv:
 284              	.LFB4698:
 285              		.file 14 "overdrive.cpp"
   1:overdrive.cpp **** #include "daisy_petal.h"
   2:overdrive.cpp **** #include "daisysp.h"
   3:overdrive.cpp **** #include "terrarium.h"
   4:overdrive.cpp **** 
   5:overdrive.cpp **** using namespace terrarium;
   6:overdrive.cpp **** using namespace daisy;
   7:overdrive.cpp **** using namespace daisysp;
   8:overdrive.cpp **** 
   9:overdrive.cpp **** #define SAMPLE_TIME 0.00002083333 // 1/fs, fs = 48kHz
  10:overdrive.cpp **** #define PI 3.14159265359
  11:overdrive.cpp **** #define PI_2 6.28318530718
  12:overdrive.cpp **** #define LOWPASS 1
  13:overdrive.cpp **** #define HIGHPASS 2
  14:overdrive.cpp **** #define FILTER_TAP_NUM 53
  15:overdrive.cpp **** 
  16:overdrive.cpp **** typedef struct signal_buffer {
  17:overdrive.cpp ****     float in;
  18:overdrive.cpp ****     float out;
  19:overdrive.cpp ****     float clipped;
  20:overdrive.cpp ****     float lowpass_filtered;
  21:overdrive.cpp ****     float highpass_filtered;
  22:overdrive.cpp **** } signal_buffer;
  23:overdrive.cpp **** 
  24:overdrive.cpp **** typedef struct pedal_attributes {
  25:overdrive.cpp ****     /* Footswitch */
  26:overdrive.cpp ****     bool FS1_bypass = true;
  27:overdrive.cpp ****     bool FS2_bypass = true;
  28:overdrive.cpp ****     /* Switches */
  29:overdrive.cpp ****     bool switch_1 = false;
  30:overdrive.cpp ****     bool switch_2 = false;
  31:overdrive.cpp ****     bool switch_3 = false;
  32:overdrive.cpp ****     bool switch_4 = false; 
  33:overdrive.cpp ****     /* Pots */
  34:overdrive.cpp ****     float POT1;
  35:overdrive.cpp ****     float POT2;
  36:overdrive.cpp ****     float POT3;
  37:overdrive.cpp ****     float POT4;
  38:overdrive.cpp ****     float POT5;
  39:overdrive.cpp ****     float POT6;
  40:overdrive.cpp ****     float previous_POT2;
  41:overdrive.cpp ****     float previous_POT3;
  42:overdrive.cpp **** 
  43:overdrive.cpp **** } pedal_attributes; 
  44:overdrive.cpp **** 
  45:overdrive.cpp **** typedef struct RCfilter {
  46:overdrive.cpp ****     float LP_coeff[2];
  47:overdrive.cpp ****     float HP_coeff;
  48:overdrive.cpp ****     float alpha;
  49:overdrive.cpp ****     float out;
  50:overdrive.cpp ****     float LP_out;
  51:overdrive.cpp ****     float HP_out;
  52:overdrive.cpp ****     float HP_in_prev = 0;
  53:overdrive.cpp ****     float HP_out_prev = 0;
  54:overdrive.cpp ****     float out_buffer;
ARM GAS  C:\Users\jonas\AppData\Local\Temp\ccpfU1Vn.s 			page 19


  55:overdrive.cpp ****     float LP_out_prev;
  56:overdrive.cpp ****     float RC;
  57:overdrive.cpp ****     uint8_t filterType;
  58:overdrive.cpp **** } RCfilter;
  59:overdrive.cpp **** 
  60:overdrive.cpp **** /* 
  61:overdrive.cpp ****  ---- FILTER SPECS ---- 
  62:overdrive.cpp **** Anti aliasing FIR filter
  63:overdrive.cpp **** 
  64:overdrive.cpp **** Sampling frequency: 48000 Hz
  65:overdrive.cpp **** 
  66:overdrive.cpp ****  -- PASS BAND --
  67:overdrive.cpp ****     0 Hz - 10000 Hz
  68:overdrive.cpp ****     gain = 1
  69:overdrive.cpp ****     desired ripple = 1 dB
  70:overdrive.cpp ****     actual ripple = 0.6943232005924238 dB
  71:overdrive.cpp **** 
  72:overdrive.cpp ****  -- STOP BAND --
  73:overdrive.cpp ****     12000 Hz - 24000 Hz
  74:overdrive.cpp ****     gain = 0
  75:overdrive.cpp ****     desired attenuation = -60 dB
  76:overdrive.cpp ****     actual attenuation = -60.692689098108126 dB
  77:overdrive.cpp **** */
  78:overdrive.cpp **** 
  79:overdrive.cpp **** typedef struct FIRfilter {
  80:overdrive.cpp ****     float buf[FILTER_TAP_NUM];
  81:overdrive.cpp ****     uint8_t bufIndex; 
  82:overdrive.cpp ****     float fir_out;
  83:overdrive.cpp **** } FIRfilter;
  84:overdrive.cpp **** 
  85:overdrive.cpp **** float ANTI_ALIASING_LP_FILTER[FILTER_TAP_NUM] = {
  86:overdrive.cpp ****     0.0022085653812701925, 0.00639294176764662, 0.009070412188086173, 0.007062307516343323, -0.0004
  87:overdrive.cpp ****     0.005695819855919352, -0.007193020983623251, -0.013995763915948804, -0.004218409015053069, 0.01
  88:overdrive.cpp ****     0.00997737554868378, 0.04130800675068791, 0.02705716772487698, -0.0327904564654493, -0.07664310
  89:overdrive.cpp ****     0.28916704676097094, 0.11926523549089836, -0.029674265442697394, -0.07664310969115254, -0.03279
  90:overdrive.cpp ****     -0.024322544905887786, -0.00013554015137675498, 0.018605413605505144, 0.013899534397328285, -0.
  91:overdrive.cpp ****     0.009911435908153236, 0.0030006682504004215, -0.005876972991221182, -0.006948527026922786, -0.0
  92:overdrive.cpp **** };
  93:overdrive.cpp **** 
  94:overdrive.cpp **** 
  95:overdrive.cpp **** pedal_attributes pedalAttribute;
  96:overdrive.cpp **** DaisyPetal hw;
  97:overdrive.cpp **** Chorus     ch;
  98:overdrive.cpp **** Led led1, led2;
  99:overdrive.cpp **** RCfilter filter;
 100:overdrive.cpp **** FIRfilter fir;
 101:overdrive.cpp **** signal_buffer buffer;
 102:overdrive.cpp **** 
 103:overdrive.cpp **** void ProcessADC();
 104:overdrive.cpp **** 
 105:overdrive.cpp **** /* Clipping functions */
 106:overdrive.cpp **** float softClip1(float in);
 107:overdrive.cpp **** float hardClip(float in);
 108:overdrive.cpp **** 
 109:overdrive.cpp **** /* Filter functions */
 110:overdrive.cpp **** void RCfilter_init(RCfilter *filt, float fc_LP, float fc_HP);
 111:overdrive.cpp **** void RCfilter_setCutOff(RCfilter *filt, float fc_LP, float fc_HP);
ARM GAS  C:\Users\jonas\AppData\Local\Temp\ccpfU1Vn.s 			page 20


 112:overdrive.cpp **** float LP_RCfilter_Update(RCfilter *filt, float input);
 113:overdrive.cpp **** float HP_RCfilter_Update(RCfilter *filt, float input); 
 114:overdrive.cpp **** void AA_FIR_init(FIRfilter *fir);
 115:overdrive.cpp **** float AA_FIR_update(FIRfilter *fir, float in, float preGain);
 116:overdrive.cpp **** 
 117:overdrive.cpp **** 
 118:overdrive.cpp **** void pedalControls()
 119:overdrive.cpp **** {
 286              		.loc 14 119 1 is_stmt 1 view -0
 287              		.cfi_startproc
 288              		@ args = 0, pretend = 0, frame = 0
 289              		@ frame_needed = 0, uses_anonymous_args = 0
 290 0000 38B5     		push	{r3, r4, r5, lr}
 291              		.cfi_def_cfa_offset 16
 292              		.cfi_offset 3, -16
 293              		.cfi_offset 4, -12
 294              		.cfi_offset 5, -8
 295              		.cfi_offset 14, -4
 120:overdrive.cpp ****     hw.ProcessAllControls();
 296              		.loc 14 120 5 view .LVU61
 297              	.LVL12:
 298              	.LBB211:
 299              	.LBI211:
  69:../../libDaisy/src/daisy_petal.h **** 
  70:../../libDaisy/src/daisy_petal.h ****     /** Initialize daisy petal */
  71:../../libDaisy/src/daisy_petal.h ****     void Init(bool boost = false);
  72:../../libDaisy/src/daisy_petal.h **** 
  73:../../libDaisy/src/daisy_petal.h ****     /**
  74:../../libDaisy/src/daisy_petal.h ****        Wait before moving on.
  75:../../libDaisy/src/daisy_petal.h ****        \param del Delay time in ms.
  76:../../libDaisy/src/daisy_petal.h ****      */
  77:../../libDaisy/src/daisy_petal.h ****     void DelayMs(size_t del);
  78:../../libDaisy/src/daisy_petal.h **** 
  79:../../libDaisy/src/daisy_petal.h **** 
  80:../../libDaisy/src/daisy_petal.h ****     /** Starts the callback
  81:../../libDaisy/src/daisy_petal.h ****     \param cb Interleaved callback function
  82:../../libDaisy/src/daisy_petal.h ****     */
  83:../../libDaisy/src/daisy_petal.h ****     void StartAudio(AudioHandle::InterleavingAudioCallback cb);
  84:../../libDaisy/src/daisy_petal.h **** 
  85:../../libDaisy/src/daisy_petal.h ****     /** Starts the callback
  86:../../libDaisy/src/daisy_petal.h ****     \param cb multichannel callback function
  87:../../libDaisy/src/daisy_petal.h ****     */
  88:../../libDaisy/src/daisy_petal.h ****     void StartAudio(AudioHandle::AudioCallback cb);
  89:../../libDaisy/src/daisy_petal.h **** 
  90:../../libDaisy/src/daisy_petal.h ****     /**
  91:../../libDaisy/src/daisy_petal.h ****        Switch callback functions
  92:../../libDaisy/src/daisy_petal.h ****        \param cb New interleaved callback function.
  93:../../libDaisy/src/daisy_petal.h ****     */
  94:../../libDaisy/src/daisy_petal.h ****     void ChangeAudioCallback(AudioHandle::InterleavingAudioCallback cb);
  95:../../libDaisy/src/daisy_petal.h **** 
  96:../../libDaisy/src/daisy_petal.h ****     /**
  97:../../libDaisy/src/daisy_petal.h ****        Switch callback functions
  98:../../libDaisy/src/daisy_petal.h ****        \param cb New multichannel callback function.
  99:../../libDaisy/src/daisy_petal.h ****     */
 100:../../libDaisy/src/daisy_petal.h ****     void ChangeAudioCallback(AudioHandle::AudioCallback cb);
 101:../../libDaisy/src/daisy_petal.h **** 
 102:../../libDaisy/src/daisy_petal.h ****     /** Stops the audio if it is running. */
ARM GAS  C:\Users\jonas\AppData\Local\Temp\ccpfU1Vn.s 			page 21


 103:../../libDaisy/src/daisy_petal.h ****     void StopAudio();
 104:../../libDaisy/src/daisy_petal.h **** 
 105:../../libDaisy/src/daisy_petal.h ****     /** Updates the Audio Sample Rate, and reinitializes.
 106:../../libDaisy/src/daisy_petal.h ****      ** Audio must be stopped for this to work.
 107:../../libDaisy/src/daisy_petal.h ****      */
 108:../../libDaisy/src/daisy_petal.h ****     void SetAudioSampleRate(SaiHandle::Config::SampleRate samplerate);
 109:../../libDaisy/src/daisy_petal.h **** 
 110:../../libDaisy/src/daisy_petal.h ****     /** Returns the audio sample rate in Hz as a floating point number.
 111:../../libDaisy/src/daisy_petal.h ****      */
 112:../../libDaisy/src/daisy_petal.h ****     float AudioSampleRate();
 113:../../libDaisy/src/daisy_petal.h **** 
 114:../../libDaisy/src/daisy_petal.h ****     /** Sets the number of samples processed per channel by the audio callback.
 115:../../libDaisy/src/daisy_petal.h ****        \param size Audio block size
 116:../../libDaisy/src/daisy_petal.h ****      */
 117:../../libDaisy/src/daisy_petal.h ****     void SetAudioBlockSize(size_t size);
 118:../../libDaisy/src/daisy_petal.h **** 
 119:../../libDaisy/src/daisy_petal.h ****     /** Returns the number of samples per channel in a block of audio. */
 120:../../libDaisy/src/daisy_petal.h ****     size_t AudioBlockSize();
 121:../../libDaisy/src/daisy_petal.h **** 
 122:../../libDaisy/src/daisy_petal.h ****     /** Returns the rate in Hz that the Audio callback is called */
 123:../../libDaisy/src/daisy_petal.h ****     float AudioCallbackRate();
 124:../../libDaisy/src/daisy_petal.h **** 
 125:../../libDaisy/src/daisy_petal.h ****     /** Start analog to digital conversion. */
 126:../../libDaisy/src/daisy_petal.h ****     void StartAdc();
 127:../../libDaisy/src/daisy_petal.h **** 
 128:../../libDaisy/src/daisy_petal.h ****     /** Stops Transfering data from the ADC */
 129:../../libDaisy/src/daisy_petal.h ****     void StopAdc();
 130:../../libDaisy/src/daisy_petal.h **** 
 131:../../libDaisy/src/daisy_petal.h ****     /** Call at the same frequency as controls are read for stable readings.*/
 132:../../libDaisy/src/daisy_petal.h ****     void ProcessAnalogControls();
 133:../../libDaisy/src/daisy_petal.h **** 
 134:../../libDaisy/src/daisy_petal.h ****     /** Process Analog and Digital Controls */
 135:../../libDaisy/src/daisy_petal.h ****     inline void ProcessAllControls()
 300              		.loc 2 135 17 view .LVU62
 301              	.LBB212:
 136:../../libDaisy/src/daisy_petal.h ****     {
 137:../../libDaisy/src/daisy_petal.h ****         ProcessAnalogControls();
 302              		.loc 2 137 9 view .LVU63
 303              		.loc 2 137 30 is_stmt 0 view .LVU64
 304 0002 2B4C     		ldr	r4, .L21
 305 0004 2046     		mov	r0, r4
 306 0006 FFF7FEFF 		bl	_ZN5daisy10DaisyPetal21ProcessAnalogControlsEv
 307              	.LVL13:
 138:../../libDaisy/src/daisy_petal.h ****         ProcessDigitalControls();
 308              		.loc 2 138 9 is_stmt 1 view .LVU65
 309              		.loc 2 138 31 is_stmt 0 view .LVU66
 310 000a 2046     		mov	r0, r4
 311 000c FFF7FEFF 		bl	_ZN5daisy10DaisyPetal22ProcessDigitalControlsEv
 312              	.LVL14:
 313              		.loc 2 138 31 view .LVU67
 314              	.LBE212:
 315              	.LBE211:
 121:overdrive.cpp **** 
 122:overdrive.cpp ****     /* Footswitch */
 123:overdrive.cpp ****     pedalAttribute.FS1_bypass ^= hw.switches[Terrarium::FOOTSWITCH_1].RisingEdge();    
 316              		.loc 14 123 5 is_stmt 1 view .LVU68
 317              	.LBB213:
ARM GAS  C:\Users\jonas\AppData\Local\Temp\ccpfU1Vn.s 			page 22


 318              	.LBI213:
  43:../../libDaisy/src/hid/switch.h **** 
  44:../../libDaisy/src/hid/switch.h ****     /** 
  45:../../libDaisy/src/hid/switch.h ****     Initializes the switch object with a given port/pin combo.
  46:../../libDaisy/src/hid/switch.h ****     \param pin port/pin object to tell the switch which hardware pin to use.
  47:../../libDaisy/src/hid/switch.h ****     \param update_rate Does nothing. Backwards compatibility until next breaking update.
  48:../../libDaisy/src/hid/switch.h ****     \param t switch type -- Default: TYPE_MOMENTARY
  49:../../libDaisy/src/hid/switch.h ****     \param pol switch polarity -- Default: POLARITY_INVERTED
  50:../../libDaisy/src/hid/switch.h ****     \param pu switch pull up/down -- Default: PULL_UP
  51:../../libDaisy/src/hid/switch.h ****     */
  52:../../libDaisy/src/hid/switch.h ****     void
  53:../../libDaisy/src/hid/switch.h ****     Init(dsy_gpio_pin pin, float update_rate, Type t, Polarity pol, Pull pu);
  54:../../libDaisy/src/hid/switch.h **** 
  55:../../libDaisy/src/hid/switch.h ****     /**
  56:../../libDaisy/src/hid/switch.h ****        Simplified Init.
  57:../../libDaisy/src/hid/switch.h ****        \param pin port/pin object to tell the switch which hardware pin to use.
  58:../../libDaisy/src/hid/switch.h ****        \param update_rate Left for backwards compatibility until next breaking change.
  59:../../libDaisy/src/hid/switch.h ****     */
  60:../../libDaisy/src/hid/switch.h ****     void Init(dsy_gpio_pin pin, float update_rate = 0.f);
  61:../../libDaisy/src/hid/switch.h **** 
  62:../../libDaisy/src/hid/switch.h ****     /** 
  63:../../libDaisy/src/hid/switch.h ****     Called at update_rate to debounce and handle timing for the switch.
  64:../../libDaisy/src/hid/switch.h ****     In order for events not to be missed, its important that the Edge/Pressed checks
  65:../../libDaisy/src/hid/switch.h ****     be made at the same rate as the debounce function is being called.
  66:../../libDaisy/src/hid/switch.h ****     */
  67:../../libDaisy/src/hid/switch.h ****     void Debounce();
  68:../../libDaisy/src/hid/switch.h **** 
  69:../../libDaisy/src/hid/switch.h ****     /** \return true if a button was just pressed. */
  70:../../libDaisy/src/hid/switch.h ****     inline bool RisingEdge() const { return updated_ ? state_ == 0x7f : false; }
 319              		.loc 4 70 17 view .LVU69
 320              	.LBB214:
 321              		.loc 4 70 38 view .LVU70
 322              		.loc 4 70 45 is_stmt 0 view .LVU71
 323 0010 94F88C31 		ldrb	r3, [r4, #396]	@ zero_extendqisi2
 324              		.loc 4 70 54 view .LVU72
 325 0014 2BB1     		cbz	r3, .L17
 326              		.loc 4 70 56 view .LVU73
 327 0016 94F89231 		ldrb	r3, [r4, #402]	@ zero_extendqisi2
 328              		.loc 4 70 54 view .LVU74
 329 001a 7F2B     		cmp	r3, #127
 330 001c 14BF     		ite	ne
 331 001e 0023     		movne	r3, #0
 332 0020 0123     		moveq	r3, #1
 333              	.L17:
 334              	.LVL15:
 335              		.loc 4 70 54 view .LVU75
 336              	.LBE214:
 337              	.LBE213:
 338              		.loc 14 123 31 view .LVU76
 339 0022 2449     		ldr	r1, .L21+4
 340 0024 0A78     		ldrb	r2, [r1]	@ zero_extendqisi2
 341 0026 D31A     		subs	r3, r2, r3
 342 0028 18BF     		it	ne
 343 002a 0123     		movne	r3, #1
 344 002c 0B70     		strb	r3, [r1]
 124:overdrive.cpp ****     pedalAttribute.FS2_bypass ^= hw.switches[Terrarium::FOOTSWITCH_2].RisingEdge();  
 345              		.loc 14 124 5 is_stmt 1 view .LVU77
ARM GAS  C:\Users\jonas\AppData\Local\Temp\ccpfU1Vn.s 			page 23


 346              	.LVL16:
 347              	.LBB215:
 348              	.LBI215:
 349              		.loc 4 70 17 view .LVU78
 350              	.LBB216:
 351              		.loc 4 70 38 view .LVU79
 352              		.loc 4 70 45 is_stmt 0 view .LVU80
 353 002e 204B     		ldr	r3, .L21
 354 0030 93F89C31 		ldrb	r3, [r3, #412]	@ zero_extendqisi2
 355              		.loc 4 70 54 view .LVU81
 356 0034 33B1     		cbz	r3, .L18
 357              		.loc 4 70 56 view .LVU82
 358 0036 1E4B     		ldr	r3, .L21
 359 0038 93F8A231 		ldrb	r3, [r3, #418]	@ zero_extendqisi2
 360              		.loc 4 70 54 view .LVU83
 361 003c 7F2B     		cmp	r3, #127
 362 003e 14BF     		ite	ne
 363 0040 0023     		movne	r3, #0
 364 0042 0123     		moveq	r3, #1
 365              	.L18:
 366              	.LVL17:
 367              		.loc 4 70 54 view .LVU84
 368              	.LBE216:
 369              	.LBE215:
 370              		.loc 14 124 31 view .LVU85
 371 0044 1B49     		ldr	r1, .L21+4
 372 0046 4A78     		ldrb	r2, [r1, #1]	@ zero_extendqisi2
 373 0048 D31A     		subs	r3, r2, r3
 374 004a 18BF     		it	ne
 375 004c 0123     		movne	r3, #1
 376 004e 4B70     		strb	r3, [r1, #1]
 125:overdrive.cpp **** 
 126:overdrive.cpp ****     /* Switches */
 127:overdrive.cpp ****     pedalAttribute.switch_1 ^= hw.switches[Terrarium::SWITCH_1].RisingEdge();
 377              		.loc 14 127 5 is_stmt 1 view .LVU86
 378              	.LVL18:
 379              	.LBB217:
 380              	.LBI217:
 381              		.loc 4 70 17 view .LVU87
 382              	.LBB218:
 383              		.loc 4 70 38 view .LVU88
 384              		.loc 4 70 45 is_stmt 0 view .LVU89
 385 0050 174B     		ldr	r3, .L21
 386 0052 93F86C31 		ldrb	r3, [r3, #364]	@ zero_extendqisi2
 387              		.loc 4 70 54 view .LVU90
 388 0056 33B1     		cbz	r3, .L19
 389              		.loc 4 70 56 view .LVU91
 390 0058 154B     		ldr	r3, .L21
 391 005a 93F87231 		ldrb	r3, [r3, #370]	@ zero_extendqisi2
 392              		.loc 4 70 54 view .LVU92
 393 005e 7F2B     		cmp	r3, #127
 394 0060 14BF     		ite	ne
 395 0062 0023     		movne	r3, #0
 396 0064 0123     		moveq	r3, #1
 397              	.L19:
 398              	.LVL19:
 399              		.loc 4 70 54 view .LVU93
ARM GAS  C:\Users\jonas\AppData\Local\Temp\ccpfU1Vn.s 			page 24


 400              	.LBE218:
 401              	.LBE217:
 402              		.loc 14 127 29 view .LVU94
 403 0066 134C     		ldr	r4, .L21+4
 404 0068 A278     		ldrb	r2, [r4, #2]	@ zero_extendqisi2
 405 006a D31A     		subs	r3, r2, r3
 406 006c 18BF     		it	ne
 407 006e 0123     		movne	r3, #1
 408 0070 A370     		strb	r3, [r4, #2]
 128:overdrive.cpp **** 
 129:overdrive.cpp ****     /* Pots */
 130:overdrive.cpp ****     pedalAttribute.POT1 = hw.knob[Terrarium::KNOB_1].Process(); // Volume control
 409              		.loc 14 130 5 is_stmt 1 view .LVU95
 410              		.loc 14 130 61 is_stmt 0 view .LVU96
 411 0072 0F4D     		ldr	r5, .L21
 412 0074 05F16800 		add	r0, r5, #104
 413 0078 FFF7FEFF 		bl	_ZN5daisy13AnalogControl7ProcessEv
 414              	.LVL20:
 415              		.loc 14 130 25 view .LVU97
 416 007c 84ED020A 		vstr.32	s0, [r4, #8]
 131:overdrive.cpp ****     pedalAttribute.POT2 = hw.knob[Terrarium::KNOB_2].Process(); // LP filter cut off frequency
 417              		.loc 14 131 5 is_stmt 1 view .LVU98
 418              		.loc 14 131 61 is_stmt 0 view .LVU99
 419 0080 05F1A800 		add	r0, r5, #168
 420 0084 FFF7FEFF 		bl	_ZN5daisy13AnalogControl7ProcessEv
 421              	.LVL21:
 422              		.loc 14 131 25 view .LVU100
 423 0088 84ED030A 		vstr.32	s0, [r4, #12]
 132:overdrive.cpp ****     pedalAttribute.POT3 = hw.knob[Terrarium::KNOB_3].Process(); // HP filter cut off frequency
 424              		.loc 14 132 5 is_stmt 1 view .LVU101
 425              		.loc 14 132 61 is_stmt 0 view .LVU102
 426 008c 05F1E800 		add	r0, r5, #232
 427 0090 FFF7FEFF 		bl	_ZN5daisy13AnalogControl7ProcessEv
 428              	.LVL22:
 429              		.loc 14 132 25 view .LVU103
 430 0094 84ED040A 		vstr.32	s0, [r4, #16]
 133:overdrive.cpp ****     pedalAttribute.POT4 = hw.knob[Terrarium::KNOB_4].Process() * 35; // Overdrive pregain
 431              		.loc 14 133 5 is_stmt 1 view .LVU104
 432              		.loc 14 133 61 is_stmt 0 view .LVU105
 433 0098 05F18800 		add	r0, r5, #136
 434 009c FFF7FEFF 		bl	_ZN5daisy13AnalogControl7ProcessEv
 435              	.LVL23:
 436              		.loc 14 133 64 view .LVU106
 437 00a0 DFED057A 		vldr.32	s15, .L21+8
 438 00a4 20EE270A 		vmul.f32	s0, s0, s15
 439              		.loc 14 133 25 view .LVU107
 440 00a8 84ED050A 		vstr.32	s0, [r4, #20]
 134:overdrive.cpp **** }
 441              		.loc 14 134 1 view .LVU108
 442 00ac 38BD     		pop	{r3, r4, r5, pc}
 443              	.L22:
 444 00ae 00BF     		.align	2
 445              	.L21:
 446 00b0 00000000 		.word	.LANCHOR0
 447 00b4 00000000 		.word	.LANCHOR1
 448 00b8 00000C42 		.word	1108082688
 449              		.cfi_endproc
ARM GAS  C:\Users\jonas\AppData\Local\Temp\ccpfU1Vn.s 			page 25


 450              	.LFE4698:
 452              		.section	.text._Z10ProcessADCv,"ax",%progbits
 453              		.align	1
 454              		.global	_Z10ProcessADCv
 455              		.syntax unified
 456              		.thumb
 457              		.thumb_func
 458              		.fpu fpv5-d16
 460              	_Z10ProcessADCv:
 461              	.LFB4700:
 135:overdrive.cpp **** 
 136:overdrive.cpp **** void AudioCallback(AudioHandle::InputBuffer  in,
 137:overdrive.cpp ****                    AudioHandle::OutputBuffer out,
 138:overdrive.cpp ****                    size_t                    size)
 139:overdrive.cpp **** {
 140:overdrive.cpp ****     pedalControls();
 141:overdrive.cpp ****     ProcessADC();
 142:overdrive.cpp **** 
 143:overdrive.cpp ****     /* LOWPASS FILTER CUTOFF */
 144:overdrive.cpp ****     if (pedalAttribute.POT2 != pedalAttribute.previous_POT2)
 145:overdrive.cpp ****     {
 146:overdrive.cpp ****         filter.filterType = LOWPASS;
 147:overdrive.cpp ****         RCfilter_setCutOff(&filter, 5000.0f * pedalAttribute.POT2, 0.0f);
 148:overdrive.cpp ****         pedalAttribute.previous_POT2 = pedalAttribute.POT2;
 149:overdrive.cpp ****     }
 150:overdrive.cpp ****     // TODO: MOVE TO ProcessADC() function
 151:overdrive.cpp ****     /* HIGHPASS FILTER CUTOFF */
 152:overdrive.cpp ****     if (pedalAttribute.POT3 != pedalAttribute.previous_POT3)
 153:overdrive.cpp ****     {
 154:overdrive.cpp ****         filter.filterType = HIGHPASS;
 155:overdrive.cpp ****         RCfilter_setCutOff(&filter, 0.0f, 2000.0f * pedalAttribute.POT3);
 156:overdrive.cpp ****         pedalAttribute.previous_POT3 = pedalAttribute.POT3;
 157:overdrive.cpp ****     }
 158:overdrive.cpp **** 
 159:overdrive.cpp ****     for(size_t i = 0; i < size; i++)
 160:overdrive.cpp ****     {   
 161:overdrive.cpp ****         buffer.in = in[0][i] * (pedalAttribute.POT1*2);
 162:overdrive.cpp **** 
 163:overdrive.cpp ****         if (hw.switches[Terrarium::FOOTSWITCH_1].RisingEdge() || hw.switches[Terrarium::FOOTSWITCH_
 164:overdrive.cpp ****         {    
 165:overdrive.cpp ****             led1.Set(!pedalAttribute.FS1_bypass ? 1.0f : 0.0f);
 166:overdrive.cpp ****             led2.Set(!pedalAttribute.FS2_bypass ? 1.0f : 0.0f);
 167:overdrive.cpp ****             led1.Update(); 
 168:overdrive.cpp ****             led2.Update();
 169:overdrive.cpp ****         }
 170:overdrive.cpp **** 
 171:overdrive.cpp ****          if (!pedalAttribute.FS1_bypass) // filtered distortion
 172:overdrive.cpp ****         {
 173:overdrive.cpp ****             buffer.lowpass_filtered = LP_RCfilter_Update(&filter, buffer.in);
 174:overdrive.cpp ****             buffer.clipped = softClip1(buffer.lowpass_filtered * pedalAttribute.POT1 * 100);
 175:overdrive.cpp ****             buffer.highpass_filtered = HP_RCfilter_Update(&filter, buffer.clipped);
 176:overdrive.cpp **** 
 177:overdrive.cpp ****             out[0][i] = buffer.highpass_filtered;
 178:overdrive.cpp ****         }
 179:overdrive.cpp ****         else if (!pedalAttribute.FS2_bypass)
 180:overdrive.cpp ****         {
 181:overdrive.cpp ****             buffer.highpass_filtered = HP_RCfilter_Update(&filter, buffer.in);
ARM GAS  C:\Users\jonas\AppData\Local\Temp\ccpfU1Vn.s 			page 26


 182:overdrive.cpp **** 
 183:overdrive.cpp ****             buffer.clipped = AA_FIR_update(&fir, buffer.highpass_filtered, pedalAttribute.POT4);
 184:overdrive.cpp **** 
 185:overdrive.cpp ****             //buffer.lowpass_filtered = LP_RCfilter_Update(&filter, buffer.clipped);
 186:overdrive.cpp **** 
 187:overdrive.cpp ****             out[0][i] = buffer.clipped;
 188:overdrive.cpp ****         }
 189:overdrive.cpp ****         else // Bypass
 190:overdrive.cpp ****         {
 191:overdrive.cpp ****             out[0][i] = buffer.in;
 192:overdrive.cpp ****         }
 193:overdrive.cpp ****     }
 194:overdrive.cpp **** }
 195:overdrive.cpp **** 
 196:overdrive.cpp **** void ProcessADC() 
 197:overdrive.cpp **** {
 462              		.loc 14 197 1 is_stmt 1 view -0
 463              		.cfi_startproc
 464              		@ args = 0, pretend = 0, frame = 0
 465              		@ frame_needed = 0, uses_anonymous_args = 0
 466              		@ link register save eliminated.
 198:overdrive.cpp **** }
 467              		.loc 14 198 1 is_stmt 0 view .LVU110
 468 0000 7047     		bx	lr
 469              		.cfi_endproc
 470              	.LFE4700:
 472              		.section	.text._Z11AA_FIR_initP9FIRfilter,"ax",%progbits
 473              		.align	1
 474              		.global	_Z11AA_FIR_initP9FIRfilter
 475              		.syntax unified
 476              		.thumb
 477              		.thumb_func
 478              		.fpu fpv5-d16
 480              	_Z11AA_FIR_initP9FIRfilter:
 481              	.LVL24:
 482              	.LFB4701:
 199:overdrive.cpp **** 
 200:overdrive.cpp **** /* ----- FIR ANTI-ALIAS FILTER ----- */
 201:overdrive.cpp **** 
 202:overdrive.cpp **** void AA_FIR_init(FIRfilter *fir)   
 203:overdrive.cpp **** {
 483              		.loc 14 203 1 is_stmt 1 view -0
 484              		.cfi_startproc
 485              		@ args = 0, pretend = 0, frame = 0
 486              		@ frame_needed = 0, uses_anonymous_args = 0
 487              		@ link register save eliminated.
 204:overdrive.cpp ****     for (uint8_t n = 0; n < FILTER_TAP_NUM; n++) // Reset all buffer indexes
 488              		.loc 14 204 5 view .LVU112
 489              	.LBB219:
 490              		.loc 14 204 18 is_stmt 0 view .LVU113
 491 0000 0023     		movs	r3, #0
 492 0002 05E0     		b	.L26
 493              	.LVL25:
 494              	.L27:
 205:overdrive.cpp ****     {
 206:overdrive.cpp ****         fir->buf[n] = 0.0f;
 495              		.loc 14 206 9 is_stmt 1 discriminator 2 view .LVU114
ARM GAS  C:\Users\jonas\AppData\Local\Temp\ccpfU1Vn.s 			page 27


 496              		.loc 14 206 21 is_stmt 0 discriminator 2 view .LVU115
 497 0004 00EB8302 		add	r2, r0, r3, lsl #2
 498 0008 0021     		movs	r1, #0
 499 000a 1160     		str	r1, [r2]	@ float
 204:overdrive.cpp ****     for (uint8_t n = 0; n < FILTER_TAP_NUM; n++) // Reset all buffer indexes
 500              		.loc 14 204 5 is_stmt 1 discriminator 2 view .LVU116
 501 000c 0133     		adds	r3, r3, #1
 502              	.LVL26:
 204:overdrive.cpp ****     for (uint8_t n = 0; n < FILTER_TAP_NUM; n++) // Reset all buffer indexes
 503              		.loc 14 204 5 is_stmt 0 discriminator 2 view .LVU117
 504 000e DBB2     		uxtb	r3, r3
 505              	.LVL27:
 506              	.L26:
 204:overdrive.cpp ****     for (uint8_t n = 0; n < FILTER_TAP_NUM; n++) // Reset all buffer indexes
 507              		.loc 14 204 27 is_stmt 1 discriminator 3 view .LVU118
 508 0010 342B     		cmp	r3, #52
 509 0012 F7D9     		bls	.L27
 510              	.LBE219:
 207:overdrive.cpp ****     }
 208:overdrive.cpp **** 
 209:overdrive.cpp ****     fir->bufIndex = 0.0f;
 511              		.loc 14 209 5 view .LVU119
 512              		.loc 14 209 19 is_stmt 0 view .LVU120
 513 0014 0023     		movs	r3, #0
 514              	.LVL28:
 515              		.loc 14 209 19 view .LVU121
 516 0016 80F8D430 		strb	r3, [r0, #212]
 210:overdrive.cpp ****     fir->fir_out = 0.0f;
 517              		.loc 14 210 5 is_stmt 1 view .LVU122
 518              		.loc 14 210 18 is_stmt 0 view .LVU123
 519 001a 0023     		movs	r3, #0
 520 001c C0F8D830 		str	r3, [r0, #216]	@ float
 211:overdrive.cpp **** }
 521              		.loc 14 211 1 view .LVU124
 522 0020 7047     		bx	lr
 523              		.cfi_endproc
 524              	.LFE4701:
 526              		.section	.text._Z16overdrive_updateP9FIRfilterff,"ax",%progbits
 527              		.align	1
 528              		.global	_Z16overdrive_updateP9FIRfilterff
 529              		.syntax unified
 530              		.thumb
 531              		.thumb_func
 532              		.fpu fpv5-d16
 534              	_Z16overdrive_updateP9FIRfilterff:
 535              	.LVL29:
 536              	.LFB4702:
 212:overdrive.cpp **** 
 213:overdrive.cpp **** float overdrive_update(FIRfilter *fir, float in, float preGain)
 214:overdrive.cpp **** {
 537              		.loc 14 214 1 is_stmt 1 view -0
 538              		.cfi_startproc
 539              		@ args = 0, pretend = 0, frame = 0
 540              		@ frame_needed = 0, uses_anonymous_args = 0
 541              		@ link register save eliminated.
 215:overdrive.cpp ****     /* Anti-aliasing lowpass filter */
 216:overdrive.cpp ****     fir->buf[fir->bufIndex] = in; // Store latest sample in buffer (circular buffer)
ARM GAS  C:\Users\jonas\AppData\Local\Temp\ccpfU1Vn.s 			page 28


 542              		.loc 14 216 5 view .LVU126
 543              		.loc 14 216 19 is_stmt 0 view .LVU127
 544 0000 90F8D430 		ldrb	r3, [r0, #212]	@ zero_extendqisi2
 545              		.loc 14 216 29 view .LVU128
 546 0004 00EB8302 		add	r2, r0, r3, lsl #2
 547 0008 82ED000A 		vstr.32	s0, [r2]
 217:overdrive.cpp ****     fir->bufIndex++;
 548              		.loc 14 217 5 is_stmt 1 view .LVU129
 549              		.loc 14 217 18 is_stmt 0 view .LVU130
 550 000c 0133     		adds	r3, r3, #1
 551 000e DBB2     		uxtb	r3, r3
 552 0010 80F8D430 		strb	r3, [r0, #212]
 218:overdrive.cpp **** 
 219:overdrive.cpp ****     if (fir->bufIndex == FILTER_TAP_NUM) // Reset index at highest filter tap
 553              		.loc 14 219 5 is_stmt 1 view .LVU131
 554 0014 352B     		cmp	r3, #53
 555 0016 06D0     		beq	.L51
 556              	.L29:
 220:overdrive.cpp ****     {
 221:overdrive.cpp ****         fir->bufIndex = 0.0f;
 222:overdrive.cpp ****     }
 223:overdrive.cpp **** 
 224:overdrive.cpp ****     // Compute new output sample via convolution
 225:overdrive.cpp ****     fir->fir_out = 0.0f;
 557              		.loc 14 225 5 view .LVU132
 558              		.loc 14 225 18 is_stmt 0 view .LVU133
 559 0018 0023     		movs	r3, #0
 560 001a C0F8D830 		str	r3, [r0, #216]	@ float
 226:overdrive.cpp **** 
 227:overdrive.cpp ****     uint8_t sumIndex = fir->bufIndex;
 561              		.loc 14 227 5 is_stmt 1 view .LVU134
 562              		.loc 14 227 13 is_stmt 0 view .LVU135
 563 001e 90F8D420 		ldrb	r2, [r0, #212]	@ zero_extendqisi2
 564              	.LVL30:
 228:overdrive.cpp **** 
 229:overdrive.cpp ****     for (uint8_t n = 0; n < FILTER_TAP_NUM; n++)
 565              		.loc 14 229 5 is_stmt 1 view .LVU136
 566              	.LBB220:
 567              		.loc 14 229 18 is_stmt 0 view .LVU137
 568 0022 0023     		movs	r3, #0
 569 0024 17E0     		b	.L32
 570              	.LVL31:
 571              	.L51:
 572              		.loc 14 229 18 view .LVU138
 573              	.LBE220:
 221:overdrive.cpp ****     }
 574              		.loc 14 221 9 is_stmt 1 view .LVU139
 221:overdrive.cpp ****     }
 575              		.loc 14 221 23 is_stmt 0 view .LVU140
 576 0026 0023     		movs	r3, #0
 577 0028 80F8D430 		strb	r3, [r0, #212]
 578 002c F4E7     		b	.L29
 579              	.LVL32:
 580              	.L41:
 581              	.LBB221:
 230:overdrive.cpp ****     {
 231:overdrive.cpp ****         if (sumIndex > 0)
ARM GAS  C:\Users\jonas\AppData\Local\Temp\ccpfU1Vn.s 			page 29


 232:overdrive.cpp ****         {
 233:overdrive.cpp ****             sumIndex--;
 234:overdrive.cpp ****         } 
 235:overdrive.cpp ****         else 
 236:overdrive.cpp ****         {
 237:overdrive.cpp ****             sumIndex = FILTER_TAP_NUM - 1;    
 582              		.loc 14 237 22 view .LVU141
 583 002e 3422     		movs	r2, #52
 584              	.LVL33:
 585              	.L31:
 238:overdrive.cpp ****         }
 239:overdrive.cpp **** 
 240:overdrive.cpp ****         fir->fir_out += ANTI_ALIASING_LP_FILTER[n] * fir->buf[sumIndex];
 586              		.loc 14 240 9 is_stmt 1 discriminator 2 view .LVU142
 587              		.loc 14 240 50 is_stmt 0 discriminator 2 view .LVU143
 588 0030 3349     		ldr	r1, .L54
 589 0032 01EB8301 		add	r1, r1, r3, lsl #2
 590 0036 D1ED007A 		vldr.32	s15, [r1]
 591              		.loc 14 240 71 discriminator 2 view .LVU144
 592 003a 00EB8201 		add	r1, r0, r2, lsl #2
 593 003e 91ED007A 		vldr.32	s14, [r1]
 594              		.loc 14 240 52 discriminator 2 view .LVU145
 595 0042 27EE877A 		vmul.f32	s14, s15, s14
 596              		.loc 14 240 22 discriminator 2 view .LVU146
 597 0046 D0ED367A 		vldr.32	s15, [r0, #216]
 598 004a 77EE877A 		vadd.f32	s15, s15, s14
 599 004e C0ED367A 		vstr.32	s15, [r0, #216]
 229:overdrive.cpp ****     {
 600              		.loc 14 229 5 is_stmt 1 discriminator 2 view .LVU147
 601 0052 0133     		adds	r3, r3, #1
 602              	.LVL34:
 229:overdrive.cpp ****     {
 603              		.loc 14 229 5 is_stmt 0 discriminator 2 view .LVU148
 604 0054 DBB2     		uxtb	r3, r3
 605              	.LVL35:
 606              	.L32:
 229:overdrive.cpp ****     {
 607              		.loc 14 229 27 is_stmt 1 discriminator 1 view .LVU149
 608 0056 342B     		cmp	r3, #52
 609 0058 04D8     		bhi	.L30
 231:overdrive.cpp ****         {
 610              		.loc 14 231 9 view .LVU150
 611 005a 002A     		cmp	r2, #0
 612 005c E7D0     		beq	.L41
 233:overdrive.cpp ****         } 
 613              		.loc 14 233 13 view .LVU151
 233:overdrive.cpp ****         } 
 614              		.loc 14 233 21 is_stmt 0 view .LVU152
 615 005e 013A     		subs	r2, r2, #1
 616              	.LVL36:
 233:overdrive.cpp ****         } 
 617              		.loc 14 233 21 view .LVU153
 618 0060 D2B2     		uxtb	r2, r2
 619              	.LVL37:
 233:overdrive.cpp ****         } 
 620              		.loc 14 233 21 view .LVU154
 621 0062 E5E7     		b	.L31
ARM GAS  C:\Users\jonas\AppData\Local\Temp\ccpfU1Vn.s 			page 30


 622              	.L30:
 233:overdrive.cpp ****         } 
 623              		.loc 14 233 21 view .LVU155
 624              	.LBE221:
 241:overdrive.cpp ****     }
 242:overdrive.cpp **** 
 243:overdrive.cpp ****     /* Overdrive */
 244:overdrive.cpp ****     float clipIn = fir->fir_out * preGain;
 625              		.loc 14 244 5 is_stmt 1 view .LVU156
 626              		.loc 14 244 25 is_stmt 0 view .LVU157
 627 0064 D0ED367A 		vldr.32	s15, [r0, #216]
 628              		.loc 14 244 11 view .LVU158
 629 0068 67EEA07A 		vmul.f32	s15, s15, s1
 630              	.LVL38:
 245:overdrive.cpp ****     float absClipIn = fabs(clipIn);
 631              		.loc 14 245 5 is_stmt 1 view .LVU159
 632              	.LBB222:
 633              	.LBI222:
 634              		.file 15 "c:\\program files\\daisytoolchain\\arm-none-eabi\\include\\c++\\10.2.1\\cmath"
   1:c:\program files\daisytoolchain\arm-none-eabi\include\c++\10.2.1\cmath **** // -*- C++ -*- C forwarding header.
   2:c:\program files\daisytoolchain\arm-none-eabi\include\c++\10.2.1\cmath **** 
   3:c:\program files\daisytoolchain\arm-none-eabi\include\c++\10.2.1\cmath **** // Copyright (C) 1997-2020 Free Software Foundation, Inc.
   4:c:\program files\daisytoolchain\arm-none-eabi\include\c++\10.2.1\cmath **** //
   5:c:\program files\daisytoolchain\arm-none-eabi\include\c++\10.2.1\cmath **** // This file is part of the GNU ISO C++ Library.  This library is free
   6:c:\program files\daisytoolchain\arm-none-eabi\include\c++\10.2.1\cmath **** // software; you can redistribute it and/or modify it under the
   7:c:\program files\daisytoolchain\arm-none-eabi\include\c++\10.2.1\cmath **** // terms of the GNU General Public License as published by the
   8:c:\program files\daisytoolchain\arm-none-eabi\include\c++\10.2.1\cmath **** // Free Software Foundation; either version 3, or (at your option)
   9:c:\program files\daisytoolchain\arm-none-eabi\include\c++\10.2.1\cmath **** // any later version.
  10:c:\program files\daisytoolchain\arm-none-eabi\include\c++\10.2.1\cmath **** 
  11:c:\program files\daisytoolchain\arm-none-eabi\include\c++\10.2.1\cmath **** // This library is distributed in the hope that it will be useful,
  12:c:\program files\daisytoolchain\arm-none-eabi\include\c++\10.2.1\cmath **** // but WITHOUT ANY WARRANTY; without even the implied warranty of
  13:c:\program files\daisytoolchain\arm-none-eabi\include\c++\10.2.1\cmath **** // MERCHANTABILITY or FITNESS FOR A PARTICULAR PURPOSE.  See the
  14:c:\program files\daisytoolchain\arm-none-eabi\include\c++\10.2.1\cmath **** // GNU General Public License for more details.
  15:c:\program files\daisytoolchain\arm-none-eabi\include\c++\10.2.1\cmath **** 
  16:c:\program files\daisytoolchain\arm-none-eabi\include\c++\10.2.1\cmath **** // Under Section 7 of GPL version 3, you are granted additional
  17:c:\program files\daisytoolchain\arm-none-eabi\include\c++\10.2.1\cmath **** // permissions described in the GCC Runtime Library Exception, version
  18:c:\program files\daisytoolchain\arm-none-eabi\include\c++\10.2.1\cmath **** // 3.1, as published by the Free Software Foundation.
  19:c:\program files\daisytoolchain\arm-none-eabi\include\c++\10.2.1\cmath **** 
  20:c:\program files\daisytoolchain\arm-none-eabi\include\c++\10.2.1\cmath **** // You should have received a copy of the GNU General Public License and
  21:c:\program files\daisytoolchain\arm-none-eabi\include\c++\10.2.1\cmath **** // a copy of the GCC Runtime Library Exception along with this program;
  22:c:\program files\daisytoolchain\arm-none-eabi\include\c++\10.2.1\cmath **** // see the files COPYING3 and COPYING.RUNTIME respectively.  If not, see
  23:c:\program files\daisytoolchain\arm-none-eabi\include\c++\10.2.1\cmath **** // <http://www.gnu.org/licenses/>.
  24:c:\program files\daisytoolchain\arm-none-eabi\include\c++\10.2.1\cmath **** 
  25:c:\program files\daisytoolchain\arm-none-eabi\include\c++\10.2.1\cmath **** /** @file include/cmath
  26:c:\program files\daisytoolchain\arm-none-eabi\include\c++\10.2.1\cmath ****  *  This is a Standard C++ Library file.  You should @c \#include this file
  27:c:\program files\daisytoolchain\arm-none-eabi\include\c++\10.2.1\cmath ****  *  in your programs, rather than any of the @a *.h implementation files.
  28:c:\program files\daisytoolchain\arm-none-eabi\include\c++\10.2.1\cmath ****  *
  29:c:\program files\daisytoolchain\arm-none-eabi\include\c++\10.2.1\cmath ****  *  This is the C++ version of the Standard C Library header @c math.h,
  30:c:\program files\daisytoolchain\arm-none-eabi\include\c++\10.2.1\cmath ****  *  and its contents are (mostly) the same as that header, but are all
  31:c:\program files\daisytoolchain\arm-none-eabi\include\c++\10.2.1\cmath ****  *  contained in the namespace @c std (except for names which are defined
  32:c:\program files\daisytoolchain\arm-none-eabi\include\c++\10.2.1\cmath ****  *  as macros in C).
  33:c:\program files\daisytoolchain\arm-none-eabi\include\c++\10.2.1\cmath ****  */
  34:c:\program files\daisytoolchain\arm-none-eabi\include\c++\10.2.1\cmath **** 
  35:c:\program files\daisytoolchain\arm-none-eabi\include\c++\10.2.1\cmath **** //
  36:c:\program files\daisytoolchain\arm-none-eabi\include\c++\10.2.1\cmath **** // ISO C++ 14882: 26.5  C library
  37:c:\program files\daisytoolchain\arm-none-eabi\include\c++\10.2.1\cmath **** //
  38:c:\program files\daisytoolchain\arm-none-eabi\include\c++\10.2.1\cmath **** 
ARM GAS  C:\Users\jonas\AppData\Local\Temp\ccpfU1Vn.s 			page 31


  39:c:\program files\daisytoolchain\arm-none-eabi\include\c++\10.2.1\cmath **** #pragma GCC system_header
  40:c:\program files\daisytoolchain\arm-none-eabi\include\c++\10.2.1\cmath **** 
  41:c:\program files\daisytoolchain\arm-none-eabi\include\c++\10.2.1\cmath **** #include <bits/c++config.h>
  42:c:\program files\daisytoolchain\arm-none-eabi\include\c++\10.2.1\cmath **** #include <bits/cpp_type_traits.h>
  43:c:\program files\daisytoolchain\arm-none-eabi\include\c++\10.2.1\cmath **** #include <ext/type_traits.h>
  44:c:\program files\daisytoolchain\arm-none-eabi\include\c++\10.2.1\cmath **** #define _GLIBCXX_INCLUDE_NEXT_C_HEADERS
  45:c:\program files\daisytoolchain\arm-none-eabi\include\c++\10.2.1\cmath **** #include_next <math.h>
  46:c:\program files\daisytoolchain\arm-none-eabi\include\c++\10.2.1\cmath **** #undef _GLIBCXX_INCLUDE_NEXT_C_HEADERS
  47:c:\program files\daisytoolchain\arm-none-eabi\include\c++\10.2.1\cmath **** #include <bits/std_abs.h>
  48:c:\program files\daisytoolchain\arm-none-eabi\include\c++\10.2.1\cmath **** 
  49:c:\program files\daisytoolchain\arm-none-eabi\include\c++\10.2.1\cmath **** #ifndef _GLIBCXX_CMATH
  50:c:\program files\daisytoolchain\arm-none-eabi\include\c++\10.2.1\cmath **** #define _GLIBCXX_CMATH 1
  51:c:\program files\daisytoolchain\arm-none-eabi\include\c++\10.2.1\cmath **** 
  52:c:\program files\daisytoolchain\arm-none-eabi\include\c++\10.2.1\cmath **** // Get rid of those macros defined in <math.h> in lieu of real functions.
  53:c:\program files\daisytoolchain\arm-none-eabi\include\c++\10.2.1\cmath **** #undef div
  54:c:\program files\daisytoolchain\arm-none-eabi\include\c++\10.2.1\cmath **** #undef acos
  55:c:\program files\daisytoolchain\arm-none-eabi\include\c++\10.2.1\cmath **** #undef asin
  56:c:\program files\daisytoolchain\arm-none-eabi\include\c++\10.2.1\cmath **** #undef atan
  57:c:\program files\daisytoolchain\arm-none-eabi\include\c++\10.2.1\cmath **** #undef atan2
  58:c:\program files\daisytoolchain\arm-none-eabi\include\c++\10.2.1\cmath **** #undef ceil
  59:c:\program files\daisytoolchain\arm-none-eabi\include\c++\10.2.1\cmath **** #undef cos
  60:c:\program files\daisytoolchain\arm-none-eabi\include\c++\10.2.1\cmath **** #undef cosh
  61:c:\program files\daisytoolchain\arm-none-eabi\include\c++\10.2.1\cmath **** #undef exp
  62:c:\program files\daisytoolchain\arm-none-eabi\include\c++\10.2.1\cmath **** #undef fabs
  63:c:\program files\daisytoolchain\arm-none-eabi\include\c++\10.2.1\cmath **** #undef floor
  64:c:\program files\daisytoolchain\arm-none-eabi\include\c++\10.2.1\cmath **** #undef fmod
  65:c:\program files\daisytoolchain\arm-none-eabi\include\c++\10.2.1\cmath **** #undef frexp
  66:c:\program files\daisytoolchain\arm-none-eabi\include\c++\10.2.1\cmath **** #undef ldexp
  67:c:\program files\daisytoolchain\arm-none-eabi\include\c++\10.2.1\cmath **** #undef log
  68:c:\program files\daisytoolchain\arm-none-eabi\include\c++\10.2.1\cmath **** #undef log10
  69:c:\program files\daisytoolchain\arm-none-eabi\include\c++\10.2.1\cmath **** #undef modf
  70:c:\program files\daisytoolchain\arm-none-eabi\include\c++\10.2.1\cmath **** #undef pow
  71:c:\program files\daisytoolchain\arm-none-eabi\include\c++\10.2.1\cmath **** #undef sin
  72:c:\program files\daisytoolchain\arm-none-eabi\include\c++\10.2.1\cmath **** #undef sinh
  73:c:\program files\daisytoolchain\arm-none-eabi\include\c++\10.2.1\cmath **** #undef sqrt
  74:c:\program files\daisytoolchain\arm-none-eabi\include\c++\10.2.1\cmath **** #undef tan
  75:c:\program files\daisytoolchain\arm-none-eabi\include\c++\10.2.1\cmath **** #undef tanh
  76:c:\program files\daisytoolchain\arm-none-eabi\include\c++\10.2.1\cmath **** 
  77:c:\program files\daisytoolchain\arm-none-eabi\include\c++\10.2.1\cmath **** extern "C++"
  78:c:\program files\daisytoolchain\arm-none-eabi\include\c++\10.2.1\cmath **** {
  79:c:\program files\daisytoolchain\arm-none-eabi\include\c++\10.2.1\cmath **** namespace std _GLIBCXX_VISIBILITY(default)
  80:c:\program files\daisytoolchain\arm-none-eabi\include\c++\10.2.1\cmath **** {
  81:c:\program files\daisytoolchain\arm-none-eabi\include\c++\10.2.1\cmath **** _GLIBCXX_BEGIN_NAMESPACE_VERSION
  82:c:\program files\daisytoolchain\arm-none-eabi\include\c++\10.2.1\cmath **** 
  83:c:\program files\daisytoolchain\arm-none-eabi\include\c++\10.2.1\cmath ****   using ::acos;
  84:c:\program files\daisytoolchain\arm-none-eabi\include\c++\10.2.1\cmath **** 
  85:c:\program files\daisytoolchain\arm-none-eabi\include\c++\10.2.1\cmath **** #ifndef __CORRECT_ISO_CPP_MATH_H_PROTO
  86:c:\program files\daisytoolchain\arm-none-eabi\include\c++\10.2.1\cmath ****   inline _GLIBCXX_CONSTEXPR float
  87:c:\program files\daisytoolchain\arm-none-eabi\include\c++\10.2.1\cmath ****   acos(float __x)
  88:c:\program files\daisytoolchain\arm-none-eabi\include\c++\10.2.1\cmath ****   { return __builtin_acosf(__x); }
  89:c:\program files\daisytoolchain\arm-none-eabi\include\c++\10.2.1\cmath **** 
  90:c:\program files\daisytoolchain\arm-none-eabi\include\c++\10.2.1\cmath ****   inline _GLIBCXX_CONSTEXPR long double
  91:c:\program files\daisytoolchain\arm-none-eabi\include\c++\10.2.1\cmath ****   acos(long double __x)
  92:c:\program files\daisytoolchain\arm-none-eabi\include\c++\10.2.1\cmath ****   { return __builtin_acosl(__x); }
  93:c:\program files\daisytoolchain\arm-none-eabi\include\c++\10.2.1\cmath **** #endif
  94:c:\program files\daisytoolchain\arm-none-eabi\include\c++\10.2.1\cmath **** 
  95:c:\program files\daisytoolchain\arm-none-eabi\include\c++\10.2.1\cmath ****   template<typename _Tp>
ARM GAS  C:\Users\jonas\AppData\Local\Temp\ccpfU1Vn.s 			page 32


  96:c:\program files\daisytoolchain\arm-none-eabi\include\c++\10.2.1\cmath ****     inline _GLIBCXX_CONSTEXPR
  97:c:\program files\daisytoolchain\arm-none-eabi\include\c++\10.2.1\cmath ****     typename __gnu_cxx::__enable_if<__is_integer<_Tp>::__value, 
  98:c:\program files\daisytoolchain\arm-none-eabi\include\c++\10.2.1\cmath ****                                     double>::__type
  99:c:\program files\daisytoolchain\arm-none-eabi\include\c++\10.2.1\cmath ****     acos(_Tp __x)
 100:c:\program files\daisytoolchain\arm-none-eabi\include\c++\10.2.1\cmath ****     { return __builtin_acos(__x); }
 101:c:\program files\daisytoolchain\arm-none-eabi\include\c++\10.2.1\cmath **** 
 102:c:\program files\daisytoolchain\arm-none-eabi\include\c++\10.2.1\cmath ****   using ::asin;
 103:c:\program files\daisytoolchain\arm-none-eabi\include\c++\10.2.1\cmath **** 
 104:c:\program files\daisytoolchain\arm-none-eabi\include\c++\10.2.1\cmath **** #ifndef __CORRECT_ISO_CPP_MATH_H_PROTO
 105:c:\program files\daisytoolchain\arm-none-eabi\include\c++\10.2.1\cmath ****   inline _GLIBCXX_CONSTEXPR float
 106:c:\program files\daisytoolchain\arm-none-eabi\include\c++\10.2.1\cmath ****   asin(float __x)
 107:c:\program files\daisytoolchain\arm-none-eabi\include\c++\10.2.1\cmath ****   { return __builtin_asinf(__x); }
 108:c:\program files\daisytoolchain\arm-none-eabi\include\c++\10.2.1\cmath **** 
 109:c:\program files\daisytoolchain\arm-none-eabi\include\c++\10.2.1\cmath ****   inline _GLIBCXX_CONSTEXPR long double
 110:c:\program files\daisytoolchain\arm-none-eabi\include\c++\10.2.1\cmath ****   asin(long double __x)
 111:c:\program files\daisytoolchain\arm-none-eabi\include\c++\10.2.1\cmath ****   { return __builtin_asinl(__x); }
 112:c:\program files\daisytoolchain\arm-none-eabi\include\c++\10.2.1\cmath **** #endif
 113:c:\program files\daisytoolchain\arm-none-eabi\include\c++\10.2.1\cmath **** 
 114:c:\program files\daisytoolchain\arm-none-eabi\include\c++\10.2.1\cmath ****   template<typename _Tp>
 115:c:\program files\daisytoolchain\arm-none-eabi\include\c++\10.2.1\cmath ****     inline _GLIBCXX_CONSTEXPR
 116:c:\program files\daisytoolchain\arm-none-eabi\include\c++\10.2.1\cmath ****     typename __gnu_cxx::__enable_if<__is_integer<_Tp>::__value,
 117:c:\program files\daisytoolchain\arm-none-eabi\include\c++\10.2.1\cmath ****                                     double>::__type
 118:c:\program files\daisytoolchain\arm-none-eabi\include\c++\10.2.1\cmath ****     asin(_Tp __x)
 119:c:\program files\daisytoolchain\arm-none-eabi\include\c++\10.2.1\cmath ****     { return __builtin_asin(__x); }
 120:c:\program files\daisytoolchain\arm-none-eabi\include\c++\10.2.1\cmath **** 
 121:c:\program files\daisytoolchain\arm-none-eabi\include\c++\10.2.1\cmath ****   using ::atan;
 122:c:\program files\daisytoolchain\arm-none-eabi\include\c++\10.2.1\cmath **** 
 123:c:\program files\daisytoolchain\arm-none-eabi\include\c++\10.2.1\cmath **** #ifndef __CORRECT_ISO_CPP_MATH_H_PROTO
 124:c:\program files\daisytoolchain\arm-none-eabi\include\c++\10.2.1\cmath ****   inline _GLIBCXX_CONSTEXPR float
 125:c:\program files\daisytoolchain\arm-none-eabi\include\c++\10.2.1\cmath ****   atan(float __x)
 126:c:\program files\daisytoolchain\arm-none-eabi\include\c++\10.2.1\cmath ****   { return __builtin_atanf(__x); }
 127:c:\program files\daisytoolchain\arm-none-eabi\include\c++\10.2.1\cmath **** 
 128:c:\program files\daisytoolchain\arm-none-eabi\include\c++\10.2.1\cmath ****   inline _GLIBCXX_CONSTEXPR long double
 129:c:\program files\daisytoolchain\arm-none-eabi\include\c++\10.2.1\cmath ****   atan(long double __x)
 130:c:\program files\daisytoolchain\arm-none-eabi\include\c++\10.2.1\cmath ****   { return __builtin_atanl(__x); }
 131:c:\program files\daisytoolchain\arm-none-eabi\include\c++\10.2.1\cmath **** #endif
 132:c:\program files\daisytoolchain\arm-none-eabi\include\c++\10.2.1\cmath **** 
 133:c:\program files\daisytoolchain\arm-none-eabi\include\c++\10.2.1\cmath ****   template<typename _Tp>
 134:c:\program files\daisytoolchain\arm-none-eabi\include\c++\10.2.1\cmath ****     inline _GLIBCXX_CONSTEXPR
 135:c:\program files\daisytoolchain\arm-none-eabi\include\c++\10.2.1\cmath ****     typename __gnu_cxx::__enable_if<__is_integer<_Tp>::__value,
 136:c:\program files\daisytoolchain\arm-none-eabi\include\c++\10.2.1\cmath ****                                     double>::__type
 137:c:\program files\daisytoolchain\arm-none-eabi\include\c++\10.2.1\cmath ****     atan(_Tp __x)
 138:c:\program files\daisytoolchain\arm-none-eabi\include\c++\10.2.1\cmath ****     { return __builtin_atan(__x); }
 139:c:\program files\daisytoolchain\arm-none-eabi\include\c++\10.2.1\cmath **** 
 140:c:\program files\daisytoolchain\arm-none-eabi\include\c++\10.2.1\cmath ****   using ::atan2;
 141:c:\program files\daisytoolchain\arm-none-eabi\include\c++\10.2.1\cmath **** 
 142:c:\program files\daisytoolchain\arm-none-eabi\include\c++\10.2.1\cmath **** #ifndef __CORRECT_ISO_CPP_MATH_H_PROTO
 143:c:\program files\daisytoolchain\arm-none-eabi\include\c++\10.2.1\cmath ****   inline _GLIBCXX_CONSTEXPR float
 144:c:\program files\daisytoolchain\arm-none-eabi\include\c++\10.2.1\cmath ****   atan2(float __y, float __x)
 145:c:\program files\daisytoolchain\arm-none-eabi\include\c++\10.2.1\cmath ****   { return __builtin_atan2f(__y, __x); }
 146:c:\program files\daisytoolchain\arm-none-eabi\include\c++\10.2.1\cmath **** 
 147:c:\program files\daisytoolchain\arm-none-eabi\include\c++\10.2.1\cmath ****   inline _GLIBCXX_CONSTEXPR long double
 148:c:\program files\daisytoolchain\arm-none-eabi\include\c++\10.2.1\cmath ****   atan2(long double __y, long double __x)
 149:c:\program files\daisytoolchain\arm-none-eabi\include\c++\10.2.1\cmath ****   { return __builtin_atan2l(__y, __x); }
 150:c:\program files\daisytoolchain\arm-none-eabi\include\c++\10.2.1\cmath **** #endif
 151:c:\program files\daisytoolchain\arm-none-eabi\include\c++\10.2.1\cmath **** 
 152:c:\program files\daisytoolchain\arm-none-eabi\include\c++\10.2.1\cmath ****   template<typename _Tp, typename _Up>
ARM GAS  C:\Users\jonas\AppData\Local\Temp\ccpfU1Vn.s 			page 33


 153:c:\program files\daisytoolchain\arm-none-eabi\include\c++\10.2.1\cmath ****     inline _GLIBCXX_CONSTEXPR
 154:c:\program files\daisytoolchain\arm-none-eabi\include\c++\10.2.1\cmath ****     typename __gnu_cxx::__promote_2<_Tp, _Up>::__type
 155:c:\program files\daisytoolchain\arm-none-eabi\include\c++\10.2.1\cmath ****     atan2(_Tp __y, _Up __x)
 156:c:\program files\daisytoolchain\arm-none-eabi\include\c++\10.2.1\cmath ****     {
 157:c:\program files\daisytoolchain\arm-none-eabi\include\c++\10.2.1\cmath ****       typedef typename __gnu_cxx::__promote_2<_Tp, _Up>::__type __type;
 158:c:\program files\daisytoolchain\arm-none-eabi\include\c++\10.2.1\cmath ****       return atan2(__type(__y), __type(__x));
 159:c:\program files\daisytoolchain\arm-none-eabi\include\c++\10.2.1\cmath ****     }
 160:c:\program files\daisytoolchain\arm-none-eabi\include\c++\10.2.1\cmath **** 
 161:c:\program files\daisytoolchain\arm-none-eabi\include\c++\10.2.1\cmath ****   using ::ceil;
 162:c:\program files\daisytoolchain\arm-none-eabi\include\c++\10.2.1\cmath **** 
 163:c:\program files\daisytoolchain\arm-none-eabi\include\c++\10.2.1\cmath **** #ifndef __CORRECT_ISO_CPP_MATH_H_PROTO
 164:c:\program files\daisytoolchain\arm-none-eabi\include\c++\10.2.1\cmath ****   inline _GLIBCXX_CONSTEXPR float
 165:c:\program files\daisytoolchain\arm-none-eabi\include\c++\10.2.1\cmath ****   ceil(float __x)
 166:c:\program files\daisytoolchain\arm-none-eabi\include\c++\10.2.1\cmath ****   { return __builtin_ceilf(__x); }
 167:c:\program files\daisytoolchain\arm-none-eabi\include\c++\10.2.1\cmath **** 
 168:c:\program files\daisytoolchain\arm-none-eabi\include\c++\10.2.1\cmath ****   inline _GLIBCXX_CONSTEXPR long double
 169:c:\program files\daisytoolchain\arm-none-eabi\include\c++\10.2.1\cmath ****   ceil(long double __x)
 170:c:\program files\daisytoolchain\arm-none-eabi\include\c++\10.2.1\cmath ****   { return __builtin_ceill(__x); }
 171:c:\program files\daisytoolchain\arm-none-eabi\include\c++\10.2.1\cmath **** #endif
 172:c:\program files\daisytoolchain\arm-none-eabi\include\c++\10.2.1\cmath **** 
 173:c:\program files\daisytoolchain\arm-none-eabi\include\c++\10.2.1\cmath ****   template<typename _Tp>
 174:c:\program files\daisytoolchain\arm-none-eabi\include\c++\10.2.1\cmath ****     inline _GLIBCXX_CONSTEXPR
 175:c:\program files\daisytoolchain\arm-none-eabi\include\c++\10.2.1\cmath ****     typename __gnu_cxx::__enable_if<__is_integer<_Tp>::__value, 
 176:c:\program files\daisytoolchain\arm-none-eabi\include\c++\10.2.1\cmath ****                                     double>::__type
 177:c:\program files\daisytoolchain\arm-none-eabi\include\c++\10.2.1\cmath ****     ceil(_Tp __x)
 178:c:\program files\daisytoolchain\arm-none-eabi\include\c++\10.2.1\cmath ****     { return __builtin_ceil(__x); }
 179:c:\program files\daisytoolchain\arm-none-eabi\include\c++\10.2.1\cmath **** 
 180:c:\program files\daisytoolchain\arm-none-eabi\include\c++\10.2.1\cmath ****   using ::cos;
 181:c:\program files\daisytoolchain\arm-none-eabi\include\c++\10.2.1\cmath **** 
 182:c:\program files\daisytoolchain\arm-none-eabi\include\c++\10.2.1\cmath **** #ifndef __CORRECT_ISO_CPP_MATH_H_PROTO
 183:c:\program files\daisytoolchain\arm-none-eabi\include\c++\10.2.1\cmath ****   inline _GLIBCXX_CONSTEXPR float
 184:c:\program files\daisytoolchain\arm-none-eabi\include\c++\10.2.1\cmath ****   cos(float __x)
 185:c:\program files\daisytoolchain\arm-none-eabi\include\c++\10.2.1\cmath ****   { return __builtin_cosf(__x); }
 186:c:\program files\daisytoolchain\arm-none-eabi\include\c++\10.2.1\cmath **** 
 187:c:\program files\daisytoolchain\arm-none-eabi\include\c++\10.2.1\cmath ****   inline _GLIBCXX_CONSTEXPR long double
 188:c:\program files\daisytoolchain\arm-none-eabi\include\c++\10.2.1\cmath ****   cos(long double __x)
 189:c:\program files\daisytoolchain\arm-none-eabi\include\c++\10.2.1\cmath ****   { return __builtin_cosl(__x); }
 190:c:\program files\daisytoolchain\arm-none-eabi\include\c++\10.2.1\cmath **** #endif
 191:c:\program files\daisytoolchain\arm-none-eabi\include\c++\10.2.1\cmath **** 
 192:c:\program files\daisytoolchain\arm-none-eabi\include\c++\10.2.1\cmath ****   template<typename _Tp>
 193:c:\program files\daisytoolchain\arm-none-eabi\include\c++\10.2.1\cmath ****     inline _GLIBCXX_CONSTEXPR
 194:c:\program files\daisytoolchain\arm-none-eabi\include\c++\10.2.1\cmath ****     typename __gnu_cxx::__enable_if<__is_integer<_Tp>::__value,
 195:c:\program files\daisytoolchain\arm-none-eabi\include\c++\10.2.1\cmath ****                                     double>::__type
 196:c:\program files\daisytoolchain\arm-none-eabi\include\c++\10.2.1\cmath ****     cos(_Tp __x)
 197:c:\program files\daisytoolchain\arm-none-eabi\include\c++\10.2.1\cmath ****     { return __builtin_cos(__x); }
 198:c:\program files\daisytoolchain\arm-none-eabi\include\c++\10.2.1\cmath **** 
 199:c:\program files\daisytoolchain\arm-none-eabi\include\c++\10.2.1\cmath ****   using ::cosh;
 200:c:\program files\daisytoolchain\arm-none-eabi\include\c++\10.2.1\cmath **** 
 201:c:\program files\daisytoolchain\arm-none-eabi\include\c++\10.2.1\cmath **** #ifndef __CORRECT_ISO_CPP_MATH_H_PROTO
 202:c:\program files\daisytoolchain\arm-none-eabi\include\c++\10.2.1\cmath ****   inline _GLIBCXX_CONSTEXPR float
 203:c:\program files\daisytoolchain\arm-none-eabi\include\c++\10.2.1\cmath ****   cosh(float __x)
 204:c:\program files\daisytoolchain\arm-none-eabi\include\c++\10.2.1\cmath ****   { return __builtin_coshf(__x); }
 205:c:\program files\daisytoolchain\arm-none-eabi\include\c++\10.2.1\cmath **** 
 206:c:\program files\daisytoolchain\arm-none-eabi\include\c++\10.2.1\cmath ****   inline _GLIBCXX_CONSTEXPR long double
 207:c:\program files\daisytoolchain\arm-none-eabi\include\c++\10.2.1\cmath ****   cosh(long double __x)
 208:c:\program files\daisytoolchain\arm-none-eabi\include\c++\10.2.1\cmath ****   { return __builtin_coshl(__x); }
 209:c:\program files\daisytoolchain\arm-none-eabi\include\c++\10.2.1\cmath **** #endif
ARM GAS  C:\Users\jonas\AppData\Local\Temp\ccpfU1Vn.s 			page 34


 210:c:\program files\daisytoolchain\arm-none-eabi\include\c++\10.2.1\cmath **** 
 211:c:\program files\daisytoolchain\arm-none-eabi\include\c++\10.2.1\cmath ****   template<typename _Tp>
 212:c:\program files\daisytoolchain\arm-none-eabi\include\c++\10.2.1\cmath ****     inline _GLIBCXX_CONSTEXPR
 213:c:\program files\daisytoolchain\arm-none-eabi\include\c++\10.2.1\cmath ****     typename __gnu_cxx::__enable_if<__is_integer<_Tp>::__value,
 214:c:\program files\daisytoolchain\arm-none-eabi\include\c++\10.2.1\cmath ****                                     double>::__type
 215:c:\program files\daisytoolchain\arm-none-eabi\include\c++\10.2.1\cmath ****     cosh(_Tp __x)
 216:c:\program files\daisytoolchain\arm-none-eabi\include\c++\10.2.1\cmath ****     { return __builtin_cosh(__x); }
 217:c:\program files\daisytoolchain\arm-none-eabi\include\c++\10.2.1\cmath **** 
 218:c:\program files\daisytoolchain\arm-none-eabi\include\c++\10.2.1\cmath ****   using ::exp;
 219:c:\program files\daisytoolchain\arm-none-eabi\include\c++\10.2.1\cmath **** 
 220:c:\program files\daisytoolchain\arm-none-eabi\include\c++\10.2.1\cmath **** #ifndef __CORRECT_ISO_CPP_MATH_H_PROTO
 221:c:\program files\daisytoolchain\arm-none-eabi\include\c++\10.2.1\cmath ****   inline _GLIBCXX_CONSTEXPR float
 222:c:\program files\daisytoolchain\arm-none-eabi\include\c++\10.2.1\cmath ****   exp(float __x)
 223:c:\program files\daisytoolchain\arm-none-eabi\include\c++\10.2.1\cmath ****   { return __builtin_expf(__x); }
 224:c:\program files\daisytoolchain\arm-none-eabi\include\c++\10.2.1\cmath **** 
 225:c:\program files\daisytoolchain\arm-none-eabi\include\c++\10.2.1\cmath ****   inline _GLIBCXX_CONSTEXPR long double
 226:c:\program files\daisytoolchain\arm-none-eabi\include\c++\10.2.1\cmath ****   exp(long double __x)
 227:c:\program files\daisytoolchain\arm-none-eabi\include\c++\10.2.1\cmath ****   { return __builtin_expl(__x); }
 228:c:\program files\daisytoolchain\arm-none-eabi\include\c++\10.2.1\cmath **** #endif
 229:c:\program files\daisytoolchain\arm-none-eabi\include\c++\10.2.1\cmath **** 
 230:c:\program files\daisytoolchain\arm-none-eabi\include\c++\10.2.1\cmath ****   template<typename _Tp>
 231:c:\program files\daisytoolchain\arm-none-eabi\include\c++\10.2.1\cmath ****     inline _GLIBCXX_CONSTEXPR
 232:c:\program files\daisytoolchain\arm-none-eabi\include\c++\10.2.1\cmath ****     typename __gnu_cxx::__enable_if<__is_integer<_Tp>::__value,
 233:c:\program files\daisytoolchain\arm-none-eabi\include\c++\10.2.1\cmath ****                                     double>::__type
 234:c:\program files\daisytoolchain\arm-none-eabi\include\c++\10.2.1\cmath ****     exp(_Tp __x)
 235:c:\program files\daisytoolchain\arm-none-eabi\include\c++\10.2.1\cmath ****     { return __builtin_exp(__x); }
 236:c:\program files\daisytoolchain\arm-none-eabi\include\c++\10.2.1\cmath **** 
 237:c:\program files\daisytoolchain\arm-none-eabi\include\c++\10.2.1\cmath ****   using ::fabs;
 238:c:\program files\daisytoolchain\arm-none-eabi\include\c++\10.2.1\cmath **** 
 239:c:\program files\daisytoolchain\arm-none-eabi\include\c++\10.2.1\cmath **** #ifndef __CORRECT_ISO_CPP_MATH_H_PROTO
 240:c:\program files\daisytoolchain\arm-none-eabi\include\c++\10.2.1\cmath ****   inline _GLIBCXX_CONSTEXPR float
 241:c:\program files\daisytoolchain\arm-none-eabi\include\c++\10.2.1\cmath ****   fabs(float __x)
 635              		.loc 15 241 3 view .LVU160
 636              	.LBB223:
 242:c:\program files\daisytoolchain\arm-none-eabi\include\c++\10.2.1\cmath ****   { return __builtin_fabsf(__x); }
 637              		.loc 15 242 5 view .LVU161
 638              		.loc 15 242 31 is_stmt 0 view .LVU162
 639 006c B0EEE77A 		vabs.f32	s14, s15
 640              	.LVL39:
 641              		.loc 15 242 31 view .LVU163
 642              	.LBE223:
 643              	.LBE222:
 246:overdrive.cpp ****     float signClipIn = (clipIn >= 0.0f) ? 1.0f : -1.0f;
 644              		.loc 14 246 5 is_stmt 1 view .LVU164
 645              		.loc 14 246 41 is_stmt 0 view .LVU165
 646 0070 F5EEC07A 		vcmpe.f32	s15, #0
 647 0074 F1EE10FA 		vmrs	APSR_nzcv, FPSCR
 648 0078 14DB     		blt	.L49
 649 007a B7EE000A 		vmov.f32	s0, #1.0e+0
 650              	.LVL40:
 651              	.L33:
 247:overdrive.cpp ****     float clipOut = 0.0f;
 652              		.loc 14 247 5 is_stmt 1 discriminator 4 view .LVU166
 248:overdrive.cpp **** 
 249:overdrive.cpp ****     if (absClipIn < 0.33333f)
 653              		.loc 14 249 5 discriminator 4 view .LVU167
 654 007e DFED216A 		vldr.32	s13, .L54+4
ARM GAS  C:\Users\jonas\AppData\Local\Temp\ccpfU1Vn.s 			page 35


 655 0082 B4EEE67A 		vcmpe.f32	s14, s13
 656 0086 F1EE10FA 		vmrs	APSR_nzcv, FPSCR
 657 008a 0ED5     		bpl	.L50
 250:overdrive.cpp ****     {
 251:overdrive.cpp ****         clipOut = 2.0f * clipIn;
 658              		.loc 14 251 9 view .LVU168
 659              		.loc 14 251 17 is_stmt 0 view .LVU169
 660 008c 37EEA70A 		vadd.f32	s0, s15, s15
 661              	.LVL41:
 662              	.L37:
 252:overdrive.cpp ****     } 
 253:overdrive.cpp ****     else if (absClipIn >= 0.33333f && absClipIn < (2.0f * 0.33333f))
 254:overdrive.cpp ****     {
 255:overdrive.cpp ****         clipOut = signClipIn * (3.0f - (2.0f - 3.0f * absClipIn) * (2.0f - 3.0f * absClipIn)) / 3.0
 256:overdrive.cpp ****     }
 257:overdrive.cpp ****     else
 258:overdrive.cpp ****     {
 259:overdrive.cpp ****         clipOut = signClipIn;
 260:overdrive.cpp ****     }
 261:overdrive.cpp **** 
 262:overdrive.cpp ****     if (clipOut > 1.0f)
 663              		.loc 14 262 5 is_stmt 1 view .LVU170
 664 0090 F7EE007A 		vmov.f32	s15, #1.0e+0
 665 0094 B4EEE70A 		vcmpe.f32	s0, s15
 666 0098 F1EE10FA 		vmrs	APSR_nzcv, FPSCR
 667 009c 24DD     		ble	.L52
 263:overdrive.cpp ****     {
 264:overdrive.cpp ****         clipOut = 1.0f;
 668              		.loc 14 264 17 is_stmt 0 view .LVU171
 669 009e B7EE000A 		vmov.f32	s0, #1.0e+0
 670              	.LVL42:
 671              		.loc 14 264 17 view .LVU172
 672 00a2 7047     		bx	lr
 673              	.LVL43:
 674              	.L49:
 246:overdrive.cpp ****     float clipOut = 0.0f;
 675              		.loc 14 246 41 view .LVU173
 676 00a4 BFEE000A 		vmov.f32	s0, #-1.0e+0
 677              	.LVL44:
 246:overdrive.cpp ****     float clipOut = 0.0f;
 678              		.loc 14 246 41 view .LVU174
 679 00a8 E9E7     		b	.L33
 680              	.LVL45:
 681              	.L50:
 253:overdrive.cpp ****     {
 682              		.loc 14 253 10 is_stmt 1 view .LVU175
 683 00aa DFED167A 		vldr.32	s15, .L54+4
 684              	.LVL46:
 253:overdrive.cpp ****     {
 685              		.loc 14 253 10 is_stmt 0 view .LVU176
 686 00ae B4EEE77A 		vcmpe.f32	s14, s15
 687 00b2 F1EE10FA 		vmrs	APSR_nzcv, FPSCR
 688 00b6 EBDB     		blt	.L37
 253:overdrive.cpp ****     {
 689              		.loc 14 253 36 discriminator 1 view .LVU177
 690 00b8 DFED137A 		vldr.32	s15, .L54+8
 691 00bc B4EEE77A 		vcmpe.f32	s14, s15
ARM GAS  C:\Users\jonas\AppData\Local\Temp\ccpfU1Vn.s 			page 36


 692 00c0 F1EE10FA 		vmrs	APSR_nzcv, FPSCR
 693 00c4 E4D5     		bpl	.L37
 255:overdrive.cpp ****     }
 694              		.loc 14 255 9 is_stmt 1 view .LVU178
 255:overdrive.cpp ****     }
 695              		.loc 14 255 53 is_stmt 0 view .LVU179
 696 00c6 F0EE086A 		vmov.f32	s13, #3.0e+0
 697 00ca 27EE267A 		vmul.f32	s14, s14, s13
 698              	.LVL47:
 255:overdrive.cpp ****     }
 699              		.loc 14 255 46 view .LVU180
 700 00ce F0EE007A 		vmov.f32	s15, #2.0e+0
 701 00d2 37EEC77A 		vsub.f32	s14, s15, s14
 255:overdrive.cpp ****     }
 702              		.loc 14 255 66 view .LVU181
 703 00d6 27EE077A 		vmul.f32	s14, s14, s14
 255:overdrive.cpp ****     }
 704              		.loc 14 255 38 view .LVU182
 705 00da 76EEC77A 		vsub.f32	s15, s13, s14
 255:overdrive.cpp ****     }
 706              		.loc 14 255 30 view .LVU183
 707 00de 67EE807A 		vmul.f32	s15, s15, s0
 255:overdrive.cpp ****     }
 708              		.loc 14 255 17 view .LVU184
 709 00e2 87EEA60A 		vdiv.f32	s0, s15, s13
 710              	.LVL48:
 255:overdrive.cpp ****     }
 711              		.loc 14 255 17 view .LVU185
 712 00e6 D3E7     		b	.L37
 713              	.L52:
 265:overdrive.cpp ****     }
 266:overdrive.cpp ****     else if (clipOut < -1.0f)
 714              		.loc 14 266 10 is_stmt 1 view .LVU186
 715 00e8 FFEE007A 		vmov.f32	s15, #-1.0e+0
 716 00ec B4EEE70A 		vcmpe.f32	s0, s15
 717 00f0 F1EE10FA 		vmrs	APSR_nzcv, FPSCR
 718 00f4 00D4     		bmi	.L53
 719              	.LVL49:
 720              	.L28:
 267:overdrive.cpp ****     {
 268:overdrive.cpp ****         clipOut = -1.0f;
 269:overdrive.cpp ****     }
 270:overdrive.cpp **** 
 271:overdrive.cpp ****     return clipOut;
 272:overdrive.cpp **** }
 721              		.loc 14 272 1 is_stmt 0 view .LVU187
 722 00f6 7047     		bx	lr
 723              	.LVL50:
 724              	.L53:
 268:overdrive.cpp ****     }
 725              		.loc 14 268 17 view .LVU188
 726 00f8 BFEE000A 		vmov.f32	s0, #-1.0e+0
 727              	.LVL51:
 271:overdrive.cpp **** }
 728              		.loc 14 271 5 is_stmt 1 view .LVU189
 271:overdrive.cpp **** }
 729              		.loc 14 271 12 is_stmt 0 view .LVU190
ARM GAS  C:\Users\jonas\AppData\Local\Temp\ccpfU1Vn.s 			page 37


 730 00fc FBE7     		b	.L28
 731              	.L55:
 732 00fe 00BF     		.align	2
 733              	.L54:
 734 0100 00000000 		.word	.LANCHOR2
 735 0104 3BAAAA3E 		.word	1051372091
 736 0108 3BAA2A3F 		.word	1059760699
 737              		.cfi_endproc
 738              	.LFE4702:
 740              		.section	.text._Z18RCfilter_setCutOffP8RCfilterff,"ax",%progbits
 741              		.align	1
 742              		.global	_Z18RCfilter_setCutOffP8RCfilterff
 743              		.syntax unified
 744              		.thumb
 745              		.thumb_func
 746              		.fpu fpv5-d16
 748              	_Z18RCfilter_setCutOffP8RCfilterff:
 749              	.LVL52:
 750              	.LFB4704:
 273:overdrive.cpp **** 
 274:overdrive.cpp **** /* ----- RC LP/HP FILTER ----- */
 275:overdrive.cpp **** 
 276:overdrive.cpp **** void RCfilter_init(RCfilter *filt, float fc_LP, float fc_HP)
 277:overdrive.cpp **** {
 278:overdrive.cpp ****     RCfilter_setCutOff(filt, fc_LP, fc_HP);
 279:overdrive.cpp ****     filt->out = 0.0f;
 280:overdrive.cpp ****     filt->out_buffer = 0.0f;
 281:overdrive.cpp **** }
 282:overdrive.cpp **** 
 283:overdrive.cpp **** void RCfilter_setCutOff(RCfilter *filt, float fc_LP, float fc_HP)
 284:overdrive.cpp **** {
 751              		.loc 14 284 1 is_stmt 1 view -0
 752              		.cfi_startproc
 753              		@ args = 0, pretend = 0, frame = 0
 754              		@ frame_needed = 0, uses_anonymous_args = 0
 755              		@ link register save eliminated.
 285:overdrive.cpp ****     if (filt->filterType == LOWPASS)
 756              		.loc 14 285 5 view .LVU192
 757              		.loc 14 285 15 is_stmt 0 view .LVU193
 758 0000 90F83030 		ldrb	r3, [r0, #48]	@ zero_extendqisi2
 759              		.loc 14 285 5 view .LVU194
 760 0004 012B     		cmp	r3, #1
 761 0006 02D0     		beq	.L61
 286:overdrive.cpp ****     {
 287:overdrive.cpp ****         if (fc_LP<50) fc_LP=50; // 50 Hz threshold (sound cuts out around here)
 288:overdrive.cpp ****         filt->RC = 1.0f / (PI_2 * fc_LP);
 289:overdrive.cpp ****         /* Compute filter coefficients with new cut off frequency */
 290:overdrive.cpp ****         filt->LP_coeff[0] = SAMPLE_TIME / (SAMPLE_TIME + filt->RC);
 291:overdrive.cpp ****         filt->LP_coeff[1] = filt->RC / (SAMPLE_TIME + filt->RC);
 292:overdrive.cpp ****     }
 293:overdrive.cpp ****     else if (filt->filterType == HIGHPASS)
 762              		.loc 14 293 10 is_stmt 1 view .LVU195
 763 0008 022B     		cmp	r3, #2
 764 000a 2AD0     		beq	.L62
 765              	.L56:
 294:overdrive.cpp ****     {
 295:overdrive.cpp ****         filt->alpha = PI_2 * SAMPLE_TIME * fc_HP;
ARM GAS  C:\Users\jonas\AppData\Local\Temp\ccpfU1Vn.s 			page 38


 296:overdrive.cpp ****         filt->HP_coeff = 1.0f / (1.0f + filt->alpha);
 297:overdrive.cpp ****     }
 298:overdrive.cpp **** }
 766              		.loc 14 298 1 is_stmt 0 view .LVU196
 767 000c 7047     		bx	lr
 768              	.L61:
 287:overdrive.cpp ****         filt->RC = 1.0f / (PI_2 * fc_LP);
 769              		.loc 14 287 9 is_stmt 1 view .LVU197
 770 000e DFED247A 		vldr.32	s15, .L63+24
 771 0012 B4EEE70A 		vcmpe.f32	s0, s15
 772 0016 F1EE10FA 		vmrs	APSR_nzcv, FPSCR
 773 001a 01D5     		bpl	.L58
 287:overdrive.cpp ****         filt->RC = 1.0f / (PI_2 * fc_LP);
 774              		.loc 14 287 28 is_stmt 0 view .LVU198
 775 001c B0EE670A 		vmov.f32	s0, s15
 776              	.LVL53:
 777              	.L58:
 288:overdrive.cpp ****         /* Compute filter coefficients with new cut off frequency */
 778              		.loc 14 288 9 is_stmt 1 view .LVU199
 288:overdrive.cpp ****         /* Compute filter coefficients with new cut off frequency */
 779              		.loc 14 288 35 is_stmt 0 view .LVU200
 780 0020 B7EEC00A 		vcvt.f64.f32	d0, s0
 781              	.LVL54:
 288:overdrive.cpp ****         /* Compute filter coefficients with new cut off frequency */
 782              		.loc 14 288 33 view .LVU201
 783 0024 9FED187B 		vldr.64	d7, .L63
 784 0028 20EE070B 		vmul.f64	d0, d0, d7
 288:overdrive.cpp ****         /* Compute filter coefficients with new cut off frequency */
 785              		.loc 14 288 25 view .LVU202
 786 002c B7EE006B 		vmov.f64	d6, #1.0e+0
 787 0030 86EE007B 		vdiv.f64	d7, d6, d0
 788 0034 B7EEC77B 		vcvt.f32.f64	s14, d7
 288:overdrive.cpp ****         /* Compute filter coefficients with new cut off frequency */
 789              		.loc 14 288 18 view .LVU203
 790 0038 80ED0B7A 		vstr.32	s14, [r0, #44]
 290:overdrive.cpp ****         filt->LP_coeff[1] = filt->RC / (SAMPLE_TIME + filt->RC);
 791              		.loc 14 290 9 is_stmt 1 view .LVU204
 290:overdrive.cpp ****         filt->LP_coeff[1] = filt->RC / (SAMPLE_TIME + filt->RC);
 792              		.loc 14 290 64 is_stmt 0 view .LVU205
 793 003c B7EEC77A 		vcvt.f64.f32	d7, s14
 290:overdrive.cpp ****         filt->LP_coeff[1] = filt->RC / (SAMPLE_TIME + filt->RC);
 794              		.loc 14 290 56 view .LVU206
 795 0040 9FED134B 		vldr.64	d4, .L63+8
 796 0044 37EE045B 		vadd.f64	d5, d7, d4
 290:overdrive.cpp ****         filt->LP_coeff[1] = filt->RC / (SAMPLE_TIME + filt->RC);
 797              		.loc 14 290 41 view .LVU207
 798 0048 84EE056B 		vdiv.f64	d6, d4, d5
 799 004c B7EEC66B 		vcvt.f32.f64	s12, d6
 290:overdrive.cpp ****         filt->LP_coeff[1] = filt->RC / (SAMPLE_TIME + filt->RC);
 800              		.loc 14 290 27 view .LVU208
 801 0050 80ED006A 		vstr.32	s12, [r0]
 291:overdrive.cpp ****     }
 802              		.loc 14 291 9 is_stmt 1 view .LVU209
 291:overdrive.cpp ****     }
 803              		.loc 14 291 38 is_stmt 0 view .LVU210
 804 0054 87EE056B 		vdiv.f64	d6, d7, d5
 805 0058 B7EEC66B 		vcvt.f32.f64	s12, d6
ARM GAS  C:\Users\jonas\AppData\Local\Temp\ccpfU1Vn.s 			page 39


 291:overdrive.cpp ****     }
 806              		.loc 14 291 27 view .LVU211
 807 005c 80ED016A 		vstr.32	s12, [r0, #4]
 808 0060 7047     		bx	lr
 809              	.LVL55:
 810              	.L62:
 295:overdrive.cpp ****         filt->HP_coeff = 1.0f / (1.0f + filt->alpha);
 811              		.loc 14 295 9 is_stmt 1 view .LVU212
 295:overdrive.cpp ****         filt->HP_coeff = 1.0f / (1.0f + filt->alpha);
 812              		.loc 14 295 44 is_stmt 0 view .LVU213
 813 0062 B7EEE07A 		vcvt.f64.f32	d7, s1
 295:overdrive.cpp ****         filt->HP_coeff = 1.0f / (1.0f + filt->alpha);
 814              		.loc 14 295 42 view .LVU214
 815 0066 9FED0C6B 		vldr.64	d6, .L63+16
 816 006a 27EE067B 		vmul.f64	d7, d7, d6
 817 006e B7EEC77B 		vcvt.f32.f64	s14, d7
 295:overdrive.cpp ****         filt->HP_coeff = 1.0f / (1.0f + filt->alpha);
 818              		.loc 14 295 21 view .LVU215
 819 0072 80ED037A 		vstr.32	s14, [r0, #12]
 296:overdrive.cpp ****     }
 820              		.loc 14 296 9 is_stmt 1 view .LVU216
 296:overdrive.cpp ****     }
 821              		.loc 14 296 39 is_stmt 0 view .LVU217
 822 0076 F7EE007A 		vmov.f32	s15, #1.0e+0
 823 007a 37EE277A 		vadd.f32	s14, s14, s15
 296:overdrive.cpp ****     }
 824              		.loc 14 296 31 view .LVU218
 825 007e C7EE876A 		vdiv.f32	s13, s15, s14
 296:overdrive.cpp ****     }
 826              		.loc 14 296 24 view .LVU219
 827 0082 C0ED026A 		vstr.32	s13, [r0, #8]
 828              		.loc 14 298 1 view .LVU220
 829 0086 C1E7     		b	.L56
 830              	.L64:
 831              		.align	3
 832              	.L63:
 833 0088 EA2E4454 		.word	1413754602
 834 008c FB211940 		.word	1075388923
 835 0090 F7E24889 		.word	-1991712009
 836 0094 67D8F53E 		.word	1056299111
 837 0098 FA3CF9A0 		.word	-1594278662
 838 009c 4328213F 		.word	1059137603
 839 00a0 00004842 		.word	1112014848
 840              		.cfi_endproc
 841              	.LFE4704:
 843              		.section	.text._Z13RCfilter_initP8RCfilterff,"ax",%progbits
 844              		.align	1
 845              		.global	_Z13RCfilter_initP8RCfilterff
 846              		.syntax unified
 847              		.thumb
 848              		.thumb_func
 849              		.fpu fpv5-d16
 851              	_Z13RCfilter_initP8RCfilterff:
 852              	.LVL56:
 853              	.LFB4703:
 277:overdrive.cpp ****     RCfilter_setCutOff(filt, fc_LP, fc_HP);
 854              		.loc 14 277 1 is_stmt 1 view -0
ARM GAS  C:\Users\jonas\AppData\Local\Temp\ccpfU1Vn.s 			page 40


 855              		.cfi_startproc
 856              		@ args = 0, pretend = 0, frame = 0
 857              		@ frame_needed = 0, uses_anonymous_args = 0
 277:overdrive.cpp ****     RCfilter_setCutOff(filt, fc_LP, fc_HP);
 858              		.loc 14 277 1 is_stmt 0 view .LVU222
 859 0000 10B5     		push	{r4, lr}
 860              		.cfi_def_cfa_offset 8
 861              		.cfi_offset 4, -8
 862              		.cfi_offset 14, -4
 863 0002 0446     		mov	r4, r0
 278:overdrive.cpp ****     filt->out = 0.0f;
 864              		.loc 14 278 5 is_stmt 1 view .LVU223
 278:overdrive.cpp ****     filt->out = 0.0f;
 865              		.loc 14 278 23 is_stmt 0 view .LVU224
 866 0004 FFF7FEFF 		bl	_Z18RCfilter_setCutOffP8RCfilterff
 867              	.LVL57:
 279:overdrive.cpp ****     filt->out_buffer = 0.0f;
 868              		.loc 14 279 5 is_stmt 1 view .LVU225
 279:overdrive.cpp ****     filt->out_buffer = 0.0f;
 869              		.loc 14 279 15 is_stmt 0 view .LVU226
 870 0008 0023     		movs	r3, #0
 871 000a 2361     		str	r3, [r4, #16]	@ float
 280:overdrive.cpp **** }
 872              		.loc 14 280 5 is_stmt 1 view .LVU227
 280:overdrive.cpp **** }
 873              		.loc 14 280 22 is_stmt 0 view .LVU228
 874 000c 6362     		str	r3, [r4, #36]	@ float
 281:overdrive.cpp **** 
 875              		.loc 14 281 1 view .LVU229
 876 000e 10BD     		pop	{r4, pc}
 281:overdrive.cpp **** 
 877              		.loc 14 281 1 view .LVU230
 878              		.cfi_endproc
 879              	.LFE4703:
 881              		.section	.text._Z18LP_RCfilter_UpdateP8RCfilterf,"ax",%progbits
 882              		.align	1
 883              		.global	_Z18LP_RCfilter_UpdateP8RCfilterf
 884              		.syntax unified
 885              		.thumb
 886              		.thumb_func
 887              		.fpu fpv5-d16
 889              	_Z18LP_RCfilter_UpdateP8RCfilterf:
 890              	.LVL58:
 891              	.LFB4705:
 299:overdrive.cpp **** 
 300:overdrive.cpp **** float LP_RCfilter_Update(RCfilter *filt, float input) 
 301:overdrive.cpp **** {
 892              		.loc 14 301 1 is_stmt 1 view -0
 893              		.cfi_startproc
 894              		@ args = 0, pretend = 0, frame = 0
 895              		@ frame_needed = 0, uses_anonymous_args = 0
 896              		@ link register save eliminated.
 302:overdrive.cpp ****     filt->LP_out = filt->LP_coeff[0] * input + filt->LP_coeff[1] * filt->LP_out_prev;
 897              		.loc 14 302 5 view .LVU232
 898              		.loc 14 302 36 is_stmt 0 view .LVU233
 899 0000 D0ED007A 		vldr.32	s15, [r0]
 900              		.loc 14 302 38 view .LVU234
ARM GAS  C:\Users\jonas\AppData\Local\Temp\ccpfU1Vn.s 			page 41


 901 0004 27EE800A 		vmul.f32	s0, s15, s0
 902              	.LVL59:
 903              		.loc 14 302 64 view .LVU235
 904 0008 D0ED017A 		vldr.32	s15, [r0, #4]
 905              		.loc 14 302 74 view .LVU236
 906 000c 90ED0A7A 		vldr.32	s14, [r0, #40]
 907              		.loc 14 302 66 view .LVU237
 908 0010 67EE877A 		vmul.f32	s15, s15, s14
 909              		.loc 14 302 46 view .LVU238
 910 0014 30EE270A 		vadd.f32	s0, s0, s15
 911              		.loc 14 302 18 view .LVU239
 912 0018 80ED050A 		vstr.32	s0, [r0, #20]
 303:overdrive.cpp ****     filt->LP_out_prev = filt->LP_out;
 913              		.loc 14 303 5 is_stmt 1 view .LVU240
 914              		.loc 14 303 23 is_stmt 0 view .LVU241
 915 001c 80ED0A0A 		vstr.32	s0, [r0, #40]
 304:overdrive.cpp **** 
 305:overdrive.cpp ****     /*if (filt->out > 1.0f) 
 306:overdrive.cpp ****         filt->out = 1.0f;
 307:overdrive.cpp ****     else if (filt->out < -1.0f) 
 308:overdrive.cpp ****         filt->out = -1.0f;*/
 309:overdrive.cpp **** 
 310:overdrive.cpp ****     return filt->LP_out; 
 916              		.loc 14 310 5 is_stmt 1 view .LVU242
 311:overdrive.cpp **** }
 917              		.loc 14 311 1 is_stmt 0 view .LVU243
 918 0020 7047     		bx	lr
 919              		.cfi_endproc
 920              	.LFE4705:
 922              		.section	.text._Z18HP_RCfilter_UpdateP8RCfilterf,"ax",%progbits
 923              		.align	1
 924              		.global	_Z18HP_RCfilter_UpdateP8RCfilterf
 925              		.syntax unified
 926              		.thumb
 927              		.thumb_func
 928              		.fpu fpv5-d16
 930              	_Z18HP_RCfilter_UpdateP8RCfilterf:
 931              	.LVL60:
 932              	.LFB4706:
 312:overdrive.cpp **** 
 313:overdrive.cpp **** float HP_RCfilter_Update(RCfilter *filt, float input) 
 314:overdrive.cpp **** {
 933              		.loc 14 314 1 is_stmt 1 view -0
 934              		.cfi_startproc
 935              		@ args = 0, pretend = 0, frame = 0
 936              		@ frame_needed = 0, uses_anonymous_args = 0
 937              		@ link register save eliminated.
 938              		.loc 14 314 1 is_stmt 0 view .LVU245
 939 0000 F0EE406A 		vmov.f32	s13, s0
 315:overdrive.cpp ****     filt->HP_out = filt->HP_coeff * ((input - filt->HP_in_prev) + filt->HP_out_prev);
 940              		.loc 14 315 5 is_stmt 1 view .LVU246
 941              		.loc 14 315 26 is_stmt 0 view .LVU247
 942 0004 D0ED027A 		vldr.32	s15, [r0, #8]
 943              		.loc 14 315 53 view .LVU248
 944 0008 90ED077A 		vldr.32	s14, [r0, #28]
 945              		.loc 14 315 45 view .LVU249
 946 000c 30EE477A 		vsub.f32	s14, s0, s14
ARM GAS  C:\Users\jonas\AppData\Local\Temp\ccpfU1Vn.s 			page 42


 947              		.loc 14 315 73 view .LVU250
 948 0010 90ED080A 		vldr.32	s0, [r0, #32]
 949              	.LVL61:
 950              		.loc 14 315 65 view .LVU251
 951 0014 37EE007A 		vadd.f32	s14, s14, s0
 952              		.loc 14 315 35 view .LVU252
 953 0018 27EE870A 		vmul.f32	s0, s15, s14
 954              		.loc 14 315 18 view .LVU253
 955 001c 80ED060A 		vstr.32	s0, [r0, #24]
 316:overdrive.cpp ****     filt->HP_out_prev = filt->HP_out;
 956              		.loc 14 316 5 is_stmt 1 view .LVU254
 957              		.loc 14 316 23 is_stmt 0 view .LVU255
 958 0020 80ED080A 		vstr.32	s0, [r0, #32]
 317:overdrive.cpp ****     filt->HP_in_prev = input; 
 959              		.loc 14 317 5 is_stmt 1 view .LVU256
 960              		.loc 14 317 22 is_stmt 0 view .LVU257
 961 0024 C0ED076A 		vstr.32	s13, [r0, #28]
 318:overdrive.cpp ****     return filt->HP_out;
 962              		.loc 14 318 5 is_stmt 1 view .LVU258
 319:overdrive.cpp **** }
 963              		.loc 14 319 1 is_stmt 0 view .LVU259
 964 0028 7047     		bx	lr
 965              		.cfi_endproc
 966              	.LFE4706:
 968              		.section	.text._Z9softClip1f,"ax",%progbits
 969              		.align	1
 970              		.global	_Z9softClip1f
 971              		.syntax unified
 972              		.thumb
 973              		.thumb_func
 974              		.fpu fpv5-d16
 976              	_Z9softClip1f:
 977              	.LVL62:
 978              	.LFB4707:
 320:overdrive.cpp **** 
 321:overdrive.cpp **** 
 322:overdrive.cpp **** float softClip1(float in)
 323:overdrive.cpp **** {
 979              		.loc 14 323 1 is_stmt 1 view -0
 980              		.cfi_startproc
 981              		@ args = 0, pretend = 0, frame = 0
 982              		@ frame_needed = 0, uses_anonymous_args = 0
 983              		.loc 14 323 1 is_stmt 0 view .LVU261
 984 0000 08B5     		push	{r3, lr}
 985              		.cfi_def_cfa_offset 8
 986              		.cfi_offset 3, -8
 987              		.cfi_offset 14, -4
 324:overdrive.cpp ****     if(in > 0)
 988              		.loc 14 324 5 is_stmt 1 view .LVU262
 989 0002 B5EEC00A 		vcmpe.f32	s0, #0
 990 0006 F1EE10FA 		vmrs	APSR_nzcv, FPSCR
 991 000a 08DD     		ble	.L74
 325:overdrive.cpp ****         return 1 - expf(-in);
 992              		.loc 14 325 9 view .LVU263
 993              		.loc 14 325 24 is_stmt 0 view .LVU264
 994 000c B1EE400A 		vneg.f32	s0, s0
 995              	.LVL63:
ARM GAS  C:\Users\jonas\AppData\Local\Temp\ccpfU1Vn.s 			page 43


 996              		.loc 14 325 24 view .LVU265
 997 0010 FFF7FEFF 		bl	expf
 998              	.LVL64:
 999              		.loc 14 325 28 view .LVU266
 1000 0014 F7EE007A 		vmov.f32	s15, #1.0e+0
 1001 0018 37EEC00A 		vsub.f32	s0, s15, s0
 1002              	.L69:
 326:overdrive.cpp ****     return -1 + expf(in);
 327:overdrive.cpp **** }
 1003              		.loc 14 327 1 view .LVU267
 1004 001c 08BD     		pop	{r3, pc}
 1005              	.LVL65:
 1006              	.L74:
 326:overdrive.cpp ****     return -1 + expf(in);
 1007              		.loc 14 326 5 is_stmt 1 view .LVU268
 326:overdrive.cpp ****     return -1 + expf(in);
 1008              		.loc 14 326 21 is_stmt 0 view .LVU269
 1009 001e FFF7FEFF 		bl	expf
 1010              	.LVL66:
 326:overdrive.cpp ****     return -1 + expf(in);
 1011              		.loc 14 326 24 view .LVU270
 1012 0022 F7EE007A 		vmov.f32	s15, #1.0e+0
 1013 0026 30EE670A 		vsub.f32	s0, s0, s15
 1014 002a F7E7     		b	.L69
 1015              		.cfi_endproc
 1016              	.LFE4707:
 1018              		.section	.text._Z13AudioCallbackPKPKfPPfj,"ax",%progbits
 1019              		.align	1
 1020              		.global	_Z13AudioCallbackPKPKfPPfj
 1021              		.syntax unified
 1022              		.thumb
 1023              		.thumb_func
 1024              		.fpu fpv5-d16
 1026              	_Z13AudioCallbackPKPKfPPfj:
 1027              	.LVL67:
 1028              	.LFB4699:
 139:overdrive.cpp ****     pedalControls();
 1029              		.loc 14 139 1 is_stmt 1 view -0
 1030              		.cfi_startproc
 1031              		@ args = 0, pretend = 0, frame = 0
 1032              		@ frame_needed = 0, uses_anonymous_args = 0
 139:overdrive.cpp ****     pedalControls();
 1033              		.loc 14 139 1 is_stmt 0 view .LVU272
 1034 0000 2DE9F047 		push	{r4, r5, r6, r7, r8, r9, r10, lr}
 1035              		.cfi_def_cfa_offset 32
 1036              		.cfi_offset 4, -32
 1037              		.cfi_offset 5, -28
 1038              		.cfi_offset 6, -24
 1039              		.cfi_offset 7, -20
 1040              		.cfi_offset 8, -16
 1041              		.cfi_offset 9, -12
 1042              		.cfi_offset 10, -8
 1043              		.cfi_offset 14, -4
 1044 0004 0746     		mov	r7, r0
 1045 0006 8846     		mov	r8, r1
 1046 0008 1646     		mov	r6, r2
 140:overdrive.cpp ****     ProcessADC();
ARM GAS  C:\Users\jonas\AppData\Local\Temp\ccpfU1Vn.s 			page 44


 1047              		.loc 14 140 5 is_stmt 1 view .LVU273
 140:overdrive.cpp ****     ProcessADC();
 1048              		.loc 14 140 18 is_stmt 0 view .LVU274
 1049 000a FFF7FEFF 		bl	_Z13pedalControlsv
 1050              	.LVL68:
 141:overdrive.cpp **** 
 1051              		.loc 14 141 5 is_stmt 1 view .LVU275
 144:overdrive.cpp ****     {
 1052              		.loc 14 144 5 view .LVU276
 144:overdrive.cpp ****     {
 1053              		.loc 14 144 24 is_stmt 0 view .LVU277
 1054 000e 634B     		ldr	r3, .L96
 1055 0010 D3ED037A 		vldr.32	s15, [r3, #12]
 144:overdrive.cpp ****     {
 1056              		.loc 14 144 47 view .LVU278
 1057 0014 93ED087A 		vldr.32	s14, [r3, #32]
 144:overdrive.cpp ****     {
 1058              		.loc 14 144 5 view .LVU279
 1059 0018 F4EE477A 		vcmp.f32	s15, s14
 1060 001c F1EE10FA 		vmrs	APSR_nzcv, FPSCR
 1061 0020 0BD1     		bne	.L92
 1062              	.L77:
 152:overdrive.cpp ****     {
 1063              		.loc 14 152 5 is_stmt 1 view .LVU280
 152:overdrive.cpp ****     {
 1064              		.loc 14 152 24 is_stmt 0 view .LVU281
 1065 0022 5E4B     		ldr	r3, .L96
 1066 0024 D3ED047A 		vldr.32	s15, [r3, #16]
 152:overdrive.cpp ****     {
 1067              		.loc 14 152 47 view .LVU282
 1068 0028 93ED097A 		vldr.32	s14, [r3, #36]
 152:overdrive.cpp ****     {
 1069              		.loc 14 152 5 view .LVU283
 1070 002c F4EE477A 		vcmp.f32	s15, s14
 1071 0030 F1EE10FA 		vmrs	APSR_nzcv, FPSCR
 1072 0034 11D1     		bne	.L93
 1073              	.L78:
 139:overdrive.cpp ****     pedalControls();
 1074              		.loc 14 139 1 discriminator 1 view .LVU284
 1075 0036 0024     		movs	r4, #0
 1076 0038 48E0     		b	.L88
 1077              	.L92:
 146:overdrive.cpp ****         RCfilter_setCutOff(&filter, 5000.0f * pedalAttribute.POT2, 0.0f);
 1078              		.loc 14 146 9 is_stmt 1 view .LVU285
 146:overdrive.cpp ****         RCfilter_setCutOff(&filter, 5000.0f * pedalAttribute.POT2, 0.0f);
 1079              		.loc 14 146 27 is_stmt 0 view .LVU286
 1080 003a 5948     		ldr	r0, .L96+4
 1081 003c 0123     		movs	r3, #1
 1082 003e 80F83030 		strb	r3, [r0, #48]
 147:overdrive.cpp ****         pedalAttribute.previous_POT2 = pedalAttribute.POT2;
 1083              		.loc 14 147 9 is_stmt 1 view .LVU287
 147:overdrive.cpp ****         pedalAttribute.previous_POT2 = pedalAttribute.POT2;
 1084              		.loc 14 147 27 is_stmt 0 view .LVU288
 1085 0042 DFED580A 		vldr.32	s1, .L96+8
 1086 0046 9FED580A 		vldr.32	s0, .L96+12
 1087 004a 27EE800A 		vmul.f32	s0, s15, s0
 1088 004e FFF7FEFF 		bl	_Z18RCfilter_setCutOffP8RCfilterff
ARM GAS  C:\Users\jonas\AppData\Local\Temp\ccpfU1Vn.s 			page 45


 1089              	.LVL69:
 148:overdrive.cpp ****     }
 1090              		.loc 14 148 9 is_stmt 1 view .LVU289
 148:overdrive.cpp ****     }
 1091              		.loc 14 148 55 is_stmt 0 view .LVU290
 1092 0052 524B     		ldr	r3, .L96
 1093 0054 DA68     		ldr	r2, [r3, #12]	@ float
 148:overdrive.cpp ****     }
 1094              		.loc 14 148 38 view .LVU291
 1095 0056 1A62     		str	r2, [r3, #32]	@ float
 1096 0058 E3E7     		b	.L77
 1097              	.L93:
 154:overdrive.cpp ****         RCfilter_setCutOff(&filter, 0.0f, 2000.0f * pedalAttribute.POT3);
 1098              		.loc 14 154 9 is_stmt 1 view .LVU292
 154:overdrive.cpp ****         RCfilter_setCutOff(&filter, 0.0f, 2000.0f * pedalAttribute.POT3);
 1099              		.loc 14 154 27 is_stmt 0 view .LVU293
 1100 005a 5148     		ldr	r0, .L96+4
 1101 005c 0223     		movs	r3, #2
 1102 005e 80F83030 		strb	r3, [r0, #48]
 155:overdrive.cpp ****         pedalAttribute.previous_POT3 = pedalAttribute.POT3;
 1103              		.loc 14 155 9 is_stmt 1 view .LVU294
 155:overdrive.cpp ****         pedalAttribute.previous_POT3 = pedalAttribute.POT3;
 1104              		.loc 14 155 27 is_stmt 0 view .LVU295
 1105 0062 DFED520A 		vldr.32	s1, .L96+16
 1106 0066 67EEA00A 		vmul.f32	s1, s15, s1
 1107 006a 9FED4E0A 		vldr.32	s0, .L96+8
 1108 006e FFF7FEFF 		bl	_Z18RCfilter_setCutOffP8RCfilterff
 1109              	.LVL70:
 156:overdrive.cpp ****     }
 1110              		.loc 14 156 9 is_stmt 1 view .LVU296
 156:overdrive.cpp ****     }
 1111              		.loc 14 156 55 is_stmt 0 view .LVU297
 1112 0072 4A4B     		ldr	r3, .L96
 1113 0074 1A69     		ldr	r2, [r3, #16]	@ float
 156:overdrive.cpp ****     }
 1114              		.loc 14 156 38 view .LVU298
 1115 0076 5A62     		str	r2, [r3, #36]	@ float
 1116 0078 DDE7     		b	.L78
 1117              	.LVL71:
 1118              	.L81:
 1119              	.LBB224:
 165:overdrive.cpp ****             led2.Set(!pedalAttribute.FS2_bypass ? 1.0f : 0.0f);
 1120              		.loc 14 165 13 is_stmt 1 discriminator 3 view .LVU299
 165:overdrive.cpp ****             led2.Set(!pedalAttribute.FS2_bypass ? 1.0f : 0.0f);
 1121              		.loc 14 165 38 is_stmt 0 discriminator 3 view .LVU300
 1122 007a 484B     		ldr	r3, .L96
 1123 007c 1B78     		ldrb	r3, [r3]	@ zero_extendqisi2
 165:overdrive.cpp ****             led2.Set(!pedalAttribute.FS2_bypass ? 1.0f : 0.0f);
 1124              		.loc 14 165 21 discriminator 3 view .LVU301
 1125 007e 002B     		cmp	r3, #0
 1126 0080 4AD0     		beq	.L89
 165:overdrive.cpp ****             led2.Set(!pedalAttribute.FS2_bypass ? 1.0f : 0.0f);
 1127              		.loc 14 165 21 view .LVU302
 1128 0082 9FED480A 		vldr.32	s0, .L96+8
 1129              	.L83:
 165:overdrive.cpp ****             led2.Set(!pedalAttribute.FS2_bypass ? 1.0f : 0.0f);
 1130              		.loc 14 165 21 discriminator 4 view .LVU303
ARM GAS  C:\Users\jonas\AppData\Local\Temp\ccpfU1Vn.s 			page 46


 1131 0086 4A48     		ldr	r0, .L96+20
 1132 0088 FFF7FEFF 		bl	_ZN5daisy3Led3SetEf
 1133              	.LVL72:
 166:overdrive.cpp ****             led1.Update(); 
 1134              		.loc 14 166 13 is_stmt 1 discriminator 4 view .LVU304
 166:overdrive.cpp ****             led1.Update(); 
 1135              		.loc 14 166 38 is_stmt 0 discriminator 4 view .LVU305
 1136 008c 434B     		ldr	r3, .L96
 1137 008e 5B78     		ldrb	r3, [r3, #1]	@ zero_extendqisi2
 166:overdrive.cpp ****             led1.Update(); 
 1138              		.loc 14 166 21 discriminator 4 view .LVU306
 1139 0090 002B     		cmp	r3, #0
 1140 0092 44D0     		beq	.L90
 166:overdrive.cpp ****             led1.Update(); 
 1141              		.loc 14 166 21 view .LVU307
 1142 0094 9FED430A 		vldr.32	s0, .L96+8
 1143              	.L84:
 166:overdrive.cpp ****             led1.Update(); 
 1144              		.loc 14 166 21 discriminator 4 view .LVU308
 1145 0098 DFF82891 		ldr	r9, .L96+40
 1146 009c 4846     		mov	r0, r9
 1147 009e FFF7FEFF 		bl	_ZN5daisy3Led3SetEf
 1148              	.LVL73:
 167:overdrive.cpp ****             led2.Update();
 1149              		.loc 14 167 13 is_stmt 1 discriminator 4 view .LVU309
 167:overdrive.cpp ****             led2.Update();
 1150              		.loc 14 167 24 is_stmt 0 discriminator 4 view .LVU310
 1151 00a2 4348     		ldr	r0, .L96+20
 1152 00a4 FFF7FEFF 		bl	_ZN5daisy3Led6UpdateEv
 1153              	.LVL74:
 168:overdrive.cpp ****         }
 1154              		.loc 14 168 13 is_stmt 1 discriminator 4 view .LVU311
 168:overdrive.cpp ****         }
 1155              		.loc 14 168 24 is_stmt 0 discriminator 4 view .LVU312
 1156 00a8 4846     		mov	r0, r9
 1157 00aa FFF7FEFF 		bl	_ZN5daisy3Led6UpdateEv
 1158              	.LVL75:
 1159              	.L82:
 171:overdrive.cpp ****         {
 1160              		.loc 14 171 10 is_stmt 1 view .LVU313
 171:overdrive.cpp ****         {
 1161              		.loc 14 171 30 is_stmt 0 view .LVU314
 1162 00ae 3B4B     		ldr	r3, .L96
 1163 00b0 1B78     		ldrb	r3, [r3]	@ zero_extendqisi2
 171:overdrive.cpp ****         {
 1164              		.loc 14 171 10 view .LVU315
 1165 00b2 002B     		cmp	r3, #0
 1166 00b4 36D0     		beq	.L94
 179:overdrive.cpp ****         {
 1167              		.loc 14 179 14 is_stmt 1 view .LVU316
 179:overdrive.cpp ****         {
 1168              		.loc 14 179 34 is_stmt 0 view .LVU317
 1169 00b6 394B     		ldr	r3, .L96
 1170 00b8 5B78     		ldrb	r3, [r3, #1]	@ zero_extendqisi2
 179:overdrive.cpp ****         {
 1171              		.loc 14 179 14 view .LVU318
 1172 00ba 002B     		cmp	r3, #0
ARM GAS  C:\Users\jonas\AppData\Local\Temp\ccpfU1Vn.s 			page 47


 1173 00bc 55D0     		beq	.L95
 191:overdrive.cpp ****         }
 1174              		.loc 14 191 13 is_stmt 1 view .LVU319
 191:overdrive.cpp ****         }
 1175              		.loc 14 191 18 is_stmt 0 view .LVU320
 1176 00be D8F80030 		ldr	r3, [r8]
 191:overdrive.cpp ****         }
 1177              		.loc 14 191 21 view .LVU321
 1178 00c2 2B44     		add	r3, r3, r5
 191:overdrive.cpp ****         }
 1179              		.loc 14 191 32 view .LVU322
 1180 00c4 3B4A     		ldr	r2, .L96+24
 1181 00c6 1268     		ldr	r2, [r2]	@ float
 191:overdrive.cpp ****         }
 1182              		.loc 14 191 23 view .LVU323
 1183 00c8 1A60     		str	r2, [r3]	@ float
 1184              	.L86:
 159:overdrive.cpp ****     {   
 1185              		.loc 14 159 5 is_stmt 1 discriminator 2 view .LVU324
 1186 00ca 0134     		adds	r4, r4, #1
 1187              	.LVL76:
 1188              	.L88:
 159:overdrive.cpp ****     {   
 1189              		.loc 14 159 25 discriminator 1 view .LVU325
 1190 00cc B442     		cmp	r4, r6
 1191 00ce 63D2     		bcs	.L76
 161:overdrive.cpp **** 
 1192              		.loc 14 161 9 view .LVU326
 161:overdrive.cpp **** 
 1193              		.loc 14 161 25 is_stmt 0 view .LVU327
 1194 00d0 3B68     		ldr	r3, [r7]
 161:overdrive.cpp **** 
 1195              		.loc 14 161 28 view .LVU328
 1196 00d2 A500     		lsls	r5, r4, #2
 1197 00d4 03EB8403 		add	r3, r3, r4, lsl #2
 1198 00d8 93ED007A 		vldr.32	s14, [r3]
 161:overdrive.cpp **** 
 1199              		.loc 14 161 48 view .LVU329
 1200 00dc 2F4B     		ldr	r3, .L96
 1201 00de D3ED027A 		vldr.32	s15, [r3, #8]
 161:overdrive.cpp **** 
 1202              		.loc 14 161 52 view .LVU330
 1203 00e2 77EEA77A 		vadd.f32	s15, s15, s15
 161:overdrive.cpp **** 
 1204              		.loc 14 161 30 view .LVU331
 1205 00e6 67EE277A 		vmul.f32	s15, s14, s15
 161:overdrive.cpp **** 
 1206              		.loc 14 161 19 view .LVU332
 1207 00ea 324B     		ldr	r3, .L96+24
 1208 00ec C3ED007A 		vstr.32	s15, [r3]
 163:overdrive.cpp ****         {    
 1209              		.loc 14 163 9 is_stmt 1 view .LVU333
 1210              	.LVL77:
 1211              	.LBB225:
 1212              	.LBI225:
 1213              		.loc 4 70 17 view .LVU334
 1214              	.LBB226:
ARM GAS  C:\Users\jonas\AppData\Local\Temp\ccpfU1Vn.s 			page 48


 1215              		.loc 4 70 38 view .LVU335
 1216              		.loc 4 70 45 is_stmt 0 view .LVU336
 1217 00f0 314B     		ldr	r3, .L96+28
 1218 00f2 93F88C31 		ldrb	r3, [r3, #396]	@ zero_extendqisi2
 1219              		.loc 4 70 54 view .LVU337
 1220 00f6 23B1     		cbz	r3, .L80
 1221              		.loc 4 70 56 view .LVU338
 1222 00f8 2F4B     		ldr	r3, .L96+28
 1223 00fa 93F89231 		ldrb	r3, [r3, #402]	@ zero_extendqisi2
 1224              	.LVL78:
 1225              		.loc 4 70 56 view .LVU339
 1226              	.LBE226:
 1227              	.LBE225:
 163:overdrive.cpp ****         {    
 1228              		.loc 14 163 63 view .LVU340
 1229 00fe 7F2B     		cmp	r3, #127
 1230 0100 BBD0     		beq	.L81
 1231              	.L80:
 1232              	.LVL79:
 1233              	.LBB227:
 1234              	.LBI227:
 1235              		.loc 4 70 17 is_stmt 1 view .LVU341
 1236              	.LBB228:
 1237              		.loc 4 70 38 view .LVU342
 1238              		.loc 4 70 45 is_stmt 0 view .LVU343
 1239 0102 2D4B     		ldr	r3, .L96+28
 1240 0104 93F89C31 		ldrb	r3, [r3, #412]	@ zero_extendqisi2
 1241              		.loc 4 70 54 view .LVU344
 1242 0108 002B     		cmp	r3, #0
 1243 010a D0D0     		beq	.L82
 1244              		.loc 4 70 56 view .LVU345
 1245 010c 2A4B     		ldr	r3, .L96+28
 1246 010e 93F8A231 		ldrb	r3, [r3, #418]	@ zero_extendqisi2
 1247              	.LVL80:
 1248              		.loc 4 70 56 view .LVU346
 1249              	.LBE228:
 1250              	.LBE227:
 163:overdrive.cpp ****         {    
 1251              		.loc 14 163 63 view .LVU347
 1252 0112 7F2B     		cmp	r3, #127
 1253 0114 CBD1     		bne	.L82
 1254 0116 B0E7     		b	.L81
 1255              	.L89:
 165:overdrive.cpp ****             led2.Set(!pedalAttribute.FS2_bypass ? 1.0f : 0.0f);
 1256              		.loc 14 165 21 view .LVU348
 1257 0118 B7EE000A 		vmov.f32	s0, #1.0e+0
 1258 011c B3E7     		b	.L83
 1259              	.L90:
 166:overdrive.cpp ****             led1.Update(); 
 1260              		.loc 14 166 21 view .LVU349
 1261 011e B7EE000A 		vmov.f32	s0, #1.0e+0
 1262 0122 B9E7     		b	.L84
 1263              	.L94:
 173:overdrive.cpp ****             buffer.clipped = softClip1(buffer.lowpass_filtered * pedalAttribute.POT1 * 100);
 1264              		.loc 14 173 13 is_stmt 1 view .LVU350
 173:overdrive.cpp ****             buffer.clipped = softClip1(buffer.lowpass_filtered * pedalAttribute.POT1 * 100);
 1265              		.loc 14 173 57 is_stmt 0 view .LVU351
ARM GAS  C:\Users\jonas\AppData\Local\Temp\ccpfU1Vn.s 			page 49


 1266 0124 DFF88C90 		ldr	r9, .L96+24
 1267 0128 DFF874A0 		ldr	r10, .L96+4
 1268 012c 99ED000A 		vldr.32	s0, [r9]
 1269 0130 5046     		mov	r0, r10
 1270 0132 FFF7FEFF 		bl	_Z18LP_RCfilter_UpdateP8RCfilterf
 1271              	.LVL81:
 173:overdrive.cpp ****             buffer.clipped = softClip1(buffer.lowpass_filtered * pedalAttribute.POT1 * 100);
 1272              		.loc 14 173 37 view .LVU352
 1273 0136 89ED030A 		vstr.32	s0, [r9, #12]
 174:overdrive.cpp ****             buffer.highpass_filtered = HP_RCfilter_Update(&filter, buffer.clipped);
 1274              		.loc 14 174 13 is_stmt 1 view .LVU353
 174:overdrive.cpp ****             buffer.highpass_filtered = HP_RCfilter_Update(&filter, buffer.clipped);
 1275              		.loc 14 174 81 is_stmt 0 view .LVU354
 1276 013a 184B     		ldr	r3, .L96
 1277 013c D3ED027A 		vldr.32	s15, [r3, #8]
 174:overdrive.cpp ****             buffer.highpass_filtered = HP_RCfilter_Update(&filter, buffer.clipped);
 1278              		.loc 14 174 64 view .LVU355
 1279 0140 20EE270A 		vmul.f32	s0, s0, s15
 174:overdrive.cpp ****             buffer.highpass_filtered = HP_RCfilter_Update(&filter, buffer.clipped);
 1280              		.loc 14 174 39 view .LVU356
 1281 0144 DFED1D7A 		vldr.32	s15, .L96+32
 1282 0148 20EE270A 		vmul.f32	s0, s0, s15
 1283 014c FFF7FEFF 		bl	_Z9softClip1f
 1284              	.LVL82:
 174:overdrive.cpp ****             buffer.highpass_filtered = HP_RCfilter_Update(&filter, buffer.clipped);
 1285              		.loc 14 174 28 view .LVU357
 1286 0150 89ED020A 		vstr.32	s0, [r9, #8]
 175:overdrive.cpp **** 
 1287              		.loc 14 175 13 is_stmt 1 view .LVU358
 175:overdrive.cpp **** 
 1288              		.loc 14 175 58 is_stmt 0 view .LVU359
 1289 0154 5046     		mov	r0, r10
 1290 0156 FFF7FEFF 		bl	_Z18HP_RCfilter_UpdateP8RCfilterf
 1291              	.LVL83:
 175:overdrive.cpp **** 
 1292              		.loc 14 175 38 view .LVU360
 1293 015a 89ED040A 		vstr.32	s0, [r9, #16]
 177:overdrive.cpp ****         }
 1294              		.loc 14 177 13 is_stmt 1 view .LVU361
 177:overdrive.cpp ****         }
 1295              		.loc 14 177 18 is_stmt 0 view .LVU362
 1296 015e D8F80030 		ldr	r3, [r8]
 177:overdrive.cpp ****         }
 1297              		.loc 14 177 21 view .LVU363
 1298 0162 2B44     		add	r3, r3, r5
 177:overdrive.cpp ****         }
 1299              		.loc 14 177 23 view .LVU364
 1300 0164 83ED000A 		vstr.32	s0, [r3]
 1301 0168 AFE7     		b	.L86
 1302              	.L95:
 181:overdrive.cpp **** 
 1303              		.loc 14 181 13 is_stmt 1 view .LVU365
 181:overdrive.cpp **** 
 1304              		.loc 14 181 58 is_stmt 0 view .LVU366
 1305 016a DFF84890 		ldr	r9, .L96+24
 1306 016e 99ED000A 		vldr.32	s0, [r9]
 1307 0172 0B48     		ldr	r0, .L96+4
ARM GAS  C:\Users\jonas\AppData\Local\Temp\ccpfU1Vn.s 			page 50


 1308 0174 FFF7FEFF 		bl	_Z18HP_RCfilter_UpdateP8RCfilterf
 1309              	.LVL84:
 181:overdrive.cpp **** 
 1310              		.loc 14 181 38 view .LVU367
 1311 0178 89ED040A 		vstr.32	s0, [r9, #16]
 183:overdrive.cpp **** 
 1312              		.loc 14 183 13 is_stmt 1 view .LVU368
 183:overdrive.cpp **** 
 1313              		.loc 14 183 43 is_stmt 0 view .LVU369
 1314 017c 074B     		ldr	r3, .L96
 1315 017e D3ED050A 		vldr.32	s1, [r3, #20]
 1316 0182 0F48     		ldr	r0, .L96+36
 1317 0184 FFF7FEFF 		bl	_Z13AA_FIR_updateP9FIRfilterff
 1318              	.LVL85:
 183:overdrive.cpp **** 
 1319              		.loc 14 183 28 view .LVU370
 1320 0188 89ED020A 		vstr.32	s0, [r9, #8]
 187:overdrive.cpp ****         }
 1321              		.loc 14 187 13 is_stmt 1 view .LVU371
 187:overdrive.cpp ****         }
 1322              		.loc 14 187 18 is_stmt 0 view .LVU372
 1323 018c D8F80030 		ldr	r3, [r8]
 187:overdrive.cpp ****         }
 1324              		.loc 14 187 21 view .LVU373
 1325 0190 2B44     		add	r3, r3, r5
 187:overdrive.cpp ****         }
 1326              		.loc 14 187 23 view .LVU374
 1327 0192 83ED000A 		vstr.32	s0, [r3]
 1328 0196 98E7     		b	.L86
 1329              	.L76:
 187:overdrive.cpp ****         }
 1330              		.loc 14 187 23 view .LVU375
 1331              	.LBE224:
 194:overdrive.cpp **** 
 1332              		.loc 14 194 1 view .LVU376
 1333 0198 BDE8F087 		pop	{r4, r5, r6, r7, r8, r9, r10, pc}
 1334              	.LVL86:
 1335              	.L97:
 194:overdrive.cpp **** 
 1336              		.loc 14 194 1 view .LVU377
 1337              		.align	2
 1338              	.L96:
 1339 019c 00000000 		.word	.LANCHOR1
 1340 01a0 00000000 		.word	.LANCHOR3
 1341 01a4 00000000 		.word	0
 1342 01a8 00409C45 		.word	1167867904
 1343 01ac 0000FA44 		.word	1157234688
 1344 01b0 00000000 		.word	.LANCHOR5
 1345 01b4 00000000 		.word	.LANCHOR4
 1346 01b8 00000000 		.word	.LANCHOR0
 1347 01bc 0000C842 		.word	1120403456
 1348 01c0 00000000 		.word	.LANCHOR7
 1349 01c4 00000000 		.word	.LANCHOR6
 1350              		.cfi_endproc
 1351              	.LFE4699:
 1353              		.section	.text._Z8hardClipf,"ax",%progbits
 1354              		.align	1
ARM GAS  C:\Users\jonas\AppData\Local\Temp\ccpfU1Vn.s 			page 51


 1355              		.global	_Z8hardClipf
 1356              		.syntax unified
 1357              		.thumb
 1358              		.thumb_func
 1359              		.fpu fpv5-d16
 1361              	_Z8hardClipf:
 1362              	.LVL87:
 1363              	.LFB4708:
 328:overdrive.cpp **** 
 329:overdrive.cpp **** float hardClip(float in)
 330:overdrive.cpp **** {
 1364              		.loc 14 330 1 is_stmt 1 view -0
 1365              		.cfi_startproc
 1366              		@ args = 0, pretend = 0, frame = 0
 1367              		@ frame_needed = 0, uses_anonymous_args = 0
 1368              		@ link register save eliminated.
 331:overdrive.cpp ****     in = in > 1.f ? 1.f : in;
 1369              		.loc 14 331 5 view .LVU379
 1370              		.loc 14 331 19 is_stmt 0 view .LVU380
 1371 0000 F7EE007A 		vmov.f32	s15, #1.0e+0
 1372 0004 B4EEE70A 		vcmpe.f32	s0, s15
 1373 0008 F1EE10FA 		vmrs	APSR_nzcv, FPSCR
 1374 000c 01DD     		ble	.L99
 1375 000e B0EE670A 		vmov.f32	s0, s15
 1376              	.LVL88:
 1377              	.L99:
 332:overdrive.cpp ****     in = in < -1.f ? -1.f : in;
 1378              		.loc 14 332 5 is_stmt 1 discriminator 4 view .LVU381
 1379              		.loc 14 332 20 is_stmt 0 discriminator 4 view .LVU382
 1380 0012 FFEE007A 		vmov.f32	s15, #-1.0e+0
 1381 0016 B4EEE70A 		vcmpe.f32	s0, s15
 1382 001a F1EE10FA 		vmrs	APSR_nzcv, FPSCR
 1383 001e 00D4     		bmi	.L107
 1384              	.LVL89:
 1385              	.L98:
 333:overdrive.cpp ****     return in;
 334:overdrive.cpp **** }
 1386              		.loc 14 334 1 view .LVU383
 1387 0020 7047     		bx	lr
 1388              	.LVL90:
 1389              	.L107:
 332:overdrive.cpp ****     in = in < -1.f ? -1.f : in;
 1390              		.loc 14 332 20 view .LVU384
 1391 0022 B0EE670A 		vmov.f32	s0, s15
 1392              	.LVL91:
 333:overdrive.cpp ****     return in;
 1393              		.loc 14 333 5 is_stmt 1 view .LVU385
 333:overdrive.cpp ****     return in;
 1394              		.loc 14 333 12 is_stmt 0 view .LVU386
 1395 0026 FBE7     		b	.L98
 1396              		.cfi_endproc
 1397              	.LFE4708:
 1399              		.section	.text.main,"ax",%progbits
 1400              		.align	1
 1401              		.global	main
 1402              		.syntax unified
 1403              		.thumb
ARM GAS  C:\Users\jonas\AppData\Local\Temp\ccpfU1Vn.s 			page 52


 1404              		.thumb_func
 1405              		.fpu fpv5-d16
 1407              	main:
 1408              	.LFB4709:
 335:overdrive.cpp **** 
 336:overdrive.cpp **** int main(void)
 337:overdrive.cpp **** {
 1409              		.loc 14 337 1 is_stmt 1 view -0
 1410              		.cfi_startproc
 1411              		@ args = 0, pretend = 0, frame = 8
 1412              		@ frame_needed = 0, uses_anonymous_args = 0
 1413 0000 70B5     		push	{r4, r5, r6, lr}
 1414              		.cfi_def_cfa_offset 16
 1415              		.cfi_offset 4, -16
 1416              		.cfi_offset 5, -12
 1417              		.cfi_offset 6, -8
 1418              		.cfi_offset 14, -4
 1419 0002 2DED028B 		vpush.64	{d8}
 1420              		.cfi_def_cfa_offset 24
 1421              		.cfi_offset 80, -24
 1422              		.cfi_offset 81, -20
 1423 0006 82B0     		sub	sp, sp, #8
 1424              		.cfi_def_cfa_offset 32
 338:overdrive.cpp ****     hw.Init();
 1425              		.loc 14 338 5 view .LVU388
 1426              		.loc 14 338 12 is_stmt 0 view .LVU389
 1427 0008 234C     		ldr	r4, .L111
 1428 000a 0021     		movs	r1, #0
 1429 000c 2046     		mov	r0, r4
 1430 000e FFF7FEFF 		bl	_ZN5daisy10DaisyPetal4InitEb
 1431              	.LVL92:
 339:overdrive.cpp ****     hw.SetAudioBlockSize(4);
 1432              		.loc 14 339 5 is_stmt 1 view .LVU390
 1433              		.loc 14 339 25 is_stmt 0 view .LVU391
 1434 0012 0421     		movs	r1, #4
 1435 0014 2046     		mov	r0, r4
 1436 0016 FFF7FEFF 		bl	_ZN5daisy10DaisyPetal17SetAudioBlockSizeEj
 1437              	.LVL93:
 340:overdrive.cpp ****     float sample_rate = hw.AudioSampleRate();
 1438              		.loc 14 340 5 is_stmt 1 view .LVU392
 1439              		.loc 14 340 43 is_stmt 0 view .LVU393
 1440 001a 2046     		mov	r0, r4
 1441 001c FFF7FEFF 		bl	_ZN5daisy10DaisyPetal15AudioSampleRateEv
 1442              	.LVL94:
 341:overdrive.cpp **** 
 342:overdrive.cpp ****     led1.Init(hw.seed.GetPin(Terrarium::LED_1),false);
 1443              		.loc 14 342 5 is_stmt 1 view .LVU394
 1444              		.loc 14 342 14 is_stmt 0 view .LVU395
 1445 0020 1620     		movs	r0, #22
 1446 0022 FFF7FEFF 		bl	_ZN5daisy9DaisySeed6GetPinEh
 1447              	.LVL95:
 1448 0026 ADF80000 		strh	r0, [sp]	@ movhi
 1449 002a 9FED1C8A 		vldr.32	s16, .L111+4
 1450 002e 1C4E     		ldr	r6, .L111+8
 1451 0030 B0EE480A 		vmov.f32	s0, s16
 1452 0034 0022     		movs	r2, #0
 1453 0036 0099     		ldr	r1, [sp]
ARM GAS  C:\Users\jonas\AppData\Local\Temp\ccpfU1Vn.s 			page 53


 1454 0038 3046     		mov	r0, r6
 1455 003a FFF7FEFF 		bl	_ZN5daisy3Led4InitE12dsy_gpio_pinbf
 1456              	.LVL96:
 343:overdrive.cpp ****     led2.Init(hw.seed.GetPin(Terrarium::LED_2),false);
 1457              		.loc 14 343 5 is_stmt 1 view .LVU396
 1458              		.loc 14 343 14 is_stmt 0 view .LVU397
 1459 003e 1720     		movs	r0, #23
 1460 0040 FFF7FEFF 		bl	_ZN5daisy9DaisySeed6GetPinEh
 1461              	.LVL97:
 1462 0044 ADF80400 		strh	r0, [sp, #4]	@ movhi
 1463 0048 164D     		ldr	r5, .L111+12
 1464 004a B0EE480A 		vmov.f32	s0, s16
 1465 004e 0022     		movs	r2, #0
 1466 0050 0199     		ldr	r1, [sp, #4]
 1467 0052 2846     		mov	r0, r5
 1468 0054 FFF7FEFF 		bl	_ZN5daisy3Led4InitE12dsy_gpio_pinbf
 1469              	.LVL98:
 344:overdrive.cpp ****     led1.Update();
 1470              		.loc 14 344 5 is_stmt 1 view .LVU398
 1471              		.loc 14 344 16 is_stmt 0 view .LVU399
 1472 0058 3046     		mov	r0, r6
 1473 005a FFF7FEFF 		bl	_ZN5daisy3Led6UpdateEv
 1474              	.LVL99:
 345:overdrive.cpp ****     led2.Update();
 1475              		.loc 14 345 5 is_stmt 1 view .LVU400
 1476              		.loc 14 345 16 is_stmt 0 view .LVU401
 1477 005e 2846     		mov	r0, r5
 1478 0060 FFF7FEFF 		bl	_ZN5daisy3Led6UpdateEv
 1479              	.LVL100:
 346:overdrive.cpp ****     
 347:overdrive.cpp ****     AA_FIR_init(&fir);
 1480              		.loc 14 347 5 is_stmt 1 view .LVU402
 1481              		.loc 14 347 16 is_stmt 0 view .LVU403
 1482 0064 1048     		ldr	r0, .L111+16
 1483 0066 FFF7FEFF 		bl	_Z11AA_FIR_initP9FIRfilter
 1484              	.LVL101:
 348:overdrive.cpp ****     RCfilter_init(&filter, 1000.0f, 1000.0f);
 1485              		.loc 14 348 5 is_stmt 1 view .LVU404
 1486              		.loc 14 348 18 is_stmt 0 view .LVU405
 1487 006a F0EE480A 		vmov.f32	s1, s16
 1488 006e B0EE480A 		vmov.f32	s0, s16
 1489 0072 0E48     		ldr	r0, .L111+20
 1490 0074 FFF7FEFF 		bl	_Z13RCfilter_initP8RCfilterff
 1491              	.LVL102:
 349:overdrive.cpp **** 
 350:overdrive.cpp ****     hw.StartAdc();
 1492              		.loc 14 350 5 is_stmt 1 view .LVU406
 1493              		.loc 14 350 16 is_stmt 0 view .LVU407
 1494 0078 2046     		mov	r0, r4
 1495 007a FFF7FEFF 		bl	_ZN5daisy10DaisyPetal8StartAdcEv
 1496              	.LVL103:
 351:overdrive.cpp ****     hw.StartAudio(AudioCallback);
 1497              		.loc 14 351 5 is_stmt 1 view .LVU408
 1498              		.loc 14 351 18 is_stmt 0 view .LVU409
 1499 007e 0C49     		ldr	r1, .L111+24
 1500 0080 2046     		mov	r0, r4
 1501 0082 FFF7FEFF 		bl	_ZN5daisy10DaisyPetal10StartAudioEPFvPKPKfPPfjE
ARM GAS  C:\Users\jonas\AppData\Local\Temp\ccpfU1Vn.s 			page 54


 1502              	.LVL104:
 1503              	.L109:
 352:overdrive.cpp **** 
 353:overdrive.cpp **** 
 354:overdrive.cpp ****     while(1)
 1504              		.loc 14 354 5 is_stmt 1 discriminator 1 view .LVU410
 355:overdrive.cpp ****     {
 356:overdrive.cpp ****         hw.DelayMs(6);
 1505              		.loc 14 356 9 discriminator 1 view .LVU411
 1506              		.loc 14 356 19 is_stmt 0 discriminator 1 view .LVU412
 1507 0086 044C     		ldr	r4, .L111
 1508 0088 0621     		movs	r1, #6
 1509 008a 2046     		mov	r0, r4
 1510 008c FFF7FEFF 		bl	_ZN5daisy10DaisyPetal7DelayMsEj
 1511              	.LVL105:
 357:overdrive.cpp ****         hw.ClearLeds();
 1512              		.loc 14 357 9 is_stmt 1 discriminator 1 view .LVU413
 1513              		.loc 14 357 21 is_stmt 0 discriminator 1 view .LVU414
 1514 0090 2046     		mov	r0, r4
 1515 0092 FFF7FEFF 		bl	_ZN5daisy10DaisyPetal9ClearLedsEv
 1516              	.LVL106:
 354:overdrive.cpp ****     {
 1517              		.loc 14 354 5 is_stmt 1 discriminator 1 view .LVU415
 1518 0096 F6E7     		b	.L109
 1519              	.L112:
 1520              		.align	2
 1521              	.L111:
 1522 0098 00000000 		.word	.LANCHOR0
 1523 009c 00007A44 		.word	1148846080
 1524 00a0 00000000 		.word	.LANCHOR5
 1525 00a4 00000000 		.word	.LANCHOR6
 1526 00a8 00000000 		.word	.LANCHOR7
 1527 00ac 00000000 		.word	.LANCHOR3
 1528 00b0 00000000 		.word	_Z13AudioCallbackPKPKfPPfj
 1529              		.cfi_endproc
 1530              	.LFE4709:
 1532              		.section	.text._GLOBAL__sub_I_ANTI_ALIASING_LP_FILTER,"ax",%progbits
 1533              		.align	1
 1534              		.syntax unified
 1535              		.thumb
 1536              		.thumb_func
 1537              		.fpu fpv5-d16
 1539              	_GLOBAL__sub_I_ANTI_ALIASING_LP_FILTER:
 1540              	.LFB5272:
 358:overdrive.cpp ****     }
 359:overdrive.cpp **** }
 1541              		.loc 14 359 1 view -0
 1542              		.cfi_startproc
 1543              		@ args = 0, pretend = 0, frame = 0
 1544              		@ frame_needed = 0, uses_anonymous_args = 0
 1545 0000 38B5     		push	{r3, r4, r5, lr}
 1546              		.cfi_def_cfa_offset 16
 1547              		.cfi_offset 3, -16
 1548              		.cfi_offset 4, -12
 1549              		.cfi_offset 5, -8
 1550              		.cfi_offset 14, -4
 1551              	.LVL107:
ARM GAS  C:\Users\jonas\AppData\Local\Temp\ccpfU1Vn.s 			page 55


 1552              	.LBB286:
 1553              	.LBI286:
 1554              		.loc 14 359 1 view .LVU417
 1555              	.LBB287:
 1556              	.LBB288:
 1557              	.LBI288:
  24:overdrive.cpp ****     /* Footswitch */
 1558              		.loc 14 24 16 view .LVU418
 1559              	.LBB289:
 1560 0002 264A     		ldr	r2, .L128
 1561 0004 0123     		movs	r3, #1
 1562 0006 1370     		strb	r3, [r2]
 1563 0008 5370     		strb	r3, [r2, #1]
 1564 000a 0023     		movs	r3, #0
 1565 000c 9370     		strb	r3, [r2, #2]
 1566 000e D370     		strb	r3, [r2, #3]
 1567 0010 1371     		strb	r3, [r2, #4]
 1568 0012 5371     		strb	r3, [r2, #5]
 1569              	.LVL108:
  24:overdrive.cpp ****     /* Footswitch */
 1570              		.loc 14 24 16 is_stmt 0 view .LVU419
 1571              	.LBE289:
 1572              	.LBE288:
 1573              	.LBB290:
 1574              	.LBI290:
  66:../../libDaisy/src/daisy_petal.h ****     /** Destructor */
 1575              		.loc 2 66 5 is_stmt 1 view .LVU420
 1576              	.LBB291:
 1577              	.LBB292:
 1578              	.LBB293:
 1579              	.LBI293:
  21:../../libDaisy/src/daisy_seed.h ****     ~DaisySeed() {}
 1580              		.loc 7 21 5 view .LVU421
 1581              	.LBB294:
 1582              	.LBB295:
 1583              	.LBI295:
 1584              		.file 16 "../../libDaisy/src/per/qspi.h"
   1:../../libDaisy/src/per/qspi.h **** #ifndef DSY_QSPI
   2:../../libDaisy/src/per/qspi.h **** #define DSY_QSPI /**< Macro */
   3:../../libDaisy/src/per/qspi.h **** 
   4:../../libDaisy/src/per/qspi.h **** #ifndef UNIT_TEST // for unit tests, a dummy implementation
   5:../../libDaisy/src/per/qspi.h **** 
   6:../../libDaisy/src/per/qspi.h **** #include <cstdint>
   7:../../libDaisy/src/per/qspi.h **** #include "daisy_core.h" // Added for dsy_gpio_pin typedef
   8:../../libDaisy/src/per/qspi.h **** 
   9:../../libDaisy/src/per/qspi.h **** #define DSY_QSPI_TEXT       \
  10:../../libDaisy/src/per/qspi.h ****     __attribute__((section( \
  11:../../libDaisy/src/per/qspi.h ****         ".qspiflash_text"))) /**< used for reading memory in memory_mapped mode. */
  12:../../libDaisy/src/per/qspi.h **** #define DSY_QSPI_DATA       \
  13:../../libDaisy/src/per/qspi.h ****     __attribute__((section( \
  14:../../libDaisy/src/per/qspi.h ****         ".qspiflash_data"))) /**< used for reading memory in memory_mapped mode. */
  15:../../libDaisy/src/per/qspi.h **** #define DSY_QSPI_BSS        \
  16:../../libDaisy/src/per/qspi.h ****     __attribute__((section( \
  17:../../libDaisy/src/per/qspi.h ****         ".qspiflash_bss"))) /**< used for reading memory in memory_mapped mode. */
  18:../../libDaisy/src/per/qspi.h **** 
  19:../../libDaisy/src/per/qspi.h **** namespace daisy
  20:../../libDaisy/src/per/qspi.h **** {
ARM GAS  C:\Users\jonas\AppData\Local\Temp\ccpfU1Vn.s 			page 56


  21:../../libDaisy/src/per/qspi.h **** /** @addtogroup serial
  22:../../libDaisy/src/per/qspi.h **** @{
  23:../../libDaisy/src/per/qspi.h **** */
  24:../../libDaisy/src/per/qspi.h **** 
  25:../../libDaisy/src/per/qspi.h **** /** 
  26:../../libDaisy/src/per/qspi.h ****  Driver for QSPI peripheral to interface with external flash memory. \n 
  27:../../libDaisy/src/per/qspi.h ****     Currently supported QSPI Devices: \n 
  28:../../libDaisy/src/per/qspi.h ****     * IS25LP080D
  29:../../libDaisy/src/per/qspi.h **** */
  30:../../libDaisy/src/per/qspi.h **** class QSPIHandle
  31:../../libDaisy/src/per/qspi.h **** {
  32:../../libDaisy/src/per/qspi.h ****   public:
  33:../../libDaisy/src/per/qspi.h ****     enum Result
  34:../../libDaisy/src/per/qspi.h ****     {
  35:../../libDaisy/src/per/qspi.h ****         OK = 0,
  36:../../libDaisy/src/per/qspi.h ****         ERR
  37:../../libDaisy/src/per/qspi.h ****     };
  38:../../libDaisy/src/per/qspi.h **** 
  39:../../libDaisy/src/per/qspi.h ****     /** Indicates the current status of the module. 
  40:../../libDaisy/src/per/qspi.h ****          *  Warnings are indicated by a leading W.
  41:../../libDaisy/src/per/qspi.h ****          *  Errors are indicated by a leading E and cause an immediate exit.
  42:../../libDaisy/src/per/qspi.h ****          * 
  43:../../libDaisy/src/per/qspi.h ****          *  \param GOOD - No errors have been reported.
  44:../../libDaisy/src/per/qspi.h ****          *  \param E_HAL_ERROR - HAL code did not return HAL_OK.
  45:../../libDaisy/src/per/qspi.h ****          *  \param E_SWITCHING_MODES - An error was encountered while switching QSPI peripheral mod
  46:../../libDaisy/src/per/qspi.h ****          *  \param E_INVALID_MODE - QSPI should not be written to while the program is executing fr
  47:../../libDaisy/src/per/qspi.h ****          */
  48:../../libDaisy/src/per/qspi.h ****     enum Status
  49:../../libDaisy/src/per/qspi.h ****     {
  50:../../libDaisy/src/per/qspi.h ****         GOOD = 0,
  51:../../libDaisy/src/per/qspi.h ****         E_HAL_ERROR,
  52:../../libDaisy/src/per/qspi.h ****         E_SWITCHING_MODES,
  53:../../libDaisy/src/per/qspi.h ****         E_INVALID_MODE,
  54:../../libDaisy/src/per/qspi.h ****     };
  55:../../libDaisy/src/per/qspi.h **** 
  56:../../libDaisy/src/per/qspi.h ****     /** Configuration structure for interfacing with QSPI Driver */
  57:../../libDaisy/src/per/qspi.h ****     struct Config
  58:../../libDaisy/src/per/qspi.h ****     {
  59:../../libDaisy/src/per/qspi.h ****         /** Flash Devices supported. (Both of these are more-or-less the same, just different sizes
  60:../../libDaisy/src/per/qspi.h ****         enum Device
  61:../../libDaisy/src/per/qspi.h ****         {
  62:../../libDaisy/src/per/qspi.h ****             IS25LP080D,  /**< & */
  63:../../libDaisy/src/per/qspi.h ****             IS25LP064A,  /**< & */
  64:../../libDaisy/src/per/qspi.h ****             DEVICE_LAST, /**< & */
  65:../../libDaisy/src/per/qspi.h ****         };
  66:../../libDaisy/src/per/qspi.h **** 
  67:../../libDaisy/src/per/qspi.h ****         /** 
  68:../../libDaisy/src/per/qspi.h ****         Modes of operation.
  69:../../libDaisy/src/per/qspi.h ****         Memory Mapped mode: QSPI configured so that the QSPI can be
  70:../../libDaisy/src/per/qspi.h ****         read from starting address 0x90000000. Writing is not
  71:../../libDaisy/src/per/qspi.h ****         possible in this mode. \n 
  72:../../libDaisy/src/per/qspi.h ****         Indirect Polling mode: Device driver enabled. 
  73:../../libDaisy/src/per/qspi.h ****         */
  74:../../libDaisy/src/per/qspi.h ****         enum Mode
  75:../../libDaisy/src/per/qspi.h ****         {
  76:../../libDaisy/src/per/qspi.h ****             MEMORY_MAPPED,    /**< & */
  77:../../libDaisy/src/per/qspi.h ****             INDIRECT_POLLING, /**< & */
ARM GAS  C:\Users\jonas\AppData\Local\Temp\ccpfU1Vn.s 			page 57


  78:../../libDaisy/src/per/qspi.h ****             MODE_LAST,
  79:../../libDaisy/src/per/qspi.h ****         };
  80:../../libDaisy/src/per/qspi.h **** 
  81:../../libDaisy/src/per/qspi.h ****         //SCK,  CE# (active low)
  82:../../libDaisy/src/per/qspi.h ****         struct
  83:../../libDaisy/src/per/qspi.h ****         {
  84:../../libDaisy/src/per/qspi.h ****             dsy_gpio_pin io0; /**< & */
  85:../../libDaisy/src/per/qspi.h ****             dsy_gpio_pin io1; /**< & */
  86:../../libDaisy/src/per/qspi.h ****             dsy_gpio_pin io2; /**< & */
  87:../../libDaisy/src/per/qspi.h ****             dsy_gpio_pin io3; /**< & */
  88:../../libDaisy/src/per/qspi.h ****             dsy_gpio_pin clk; /**< & */
  89:../../libDaisy/src/per/qspi.h ****             dsy_gpio_pin ncs; /**< & */
  90:../../libDaisy/src/per/qspi.h ****         } pin_config;
  91:../../libDaisy/src/per/qspi.h **** 
  92:../../libDaisy/src/per/qspi.h ****         Device device;
  93:../../libDaisy/src/per/qspi.h ****         Mode   mode;
  94:../../libDaisy/src/per/qspi.h ****     };
  95:../../libDaisy/src/per/qspi.h **** 
  96:../../libDaisy/src/per/qspi.h ****     /** 
  97:../../libDaisy/src/per/qspi.h ****         Initializes QSPI peripheral, and Resets, and prepares memory for access.
  98:../../libDaisy/src/per/qspi.h ****         \param config should be populated with the mode, device and pin_config before calling this 
  99:../../libDaisy/src/per/qspi.h ****         \return Result::OK or Result::ERR
 100:../../libDaisy/src/per/qspi.h ****         */
 101:../../libDaisy/src/per/qspi.h ****     Result Init(const Config& config);
 102:../../libDaisy/src/per/qspi.h **** 
 103:../../libDaisy/src/per/qspi.h ****     /** Returns the current config. */
 104:../../libDaisy/src/per/qspi.h ****     const Config& GetConfig() const;
 105:../../libDaisy/src/per/qspi.h **** 
 106:../../libDaisy/src/per/qspi.h ****     // Couldn't this just be called before anything else in init? That
 107:../../libDaisy/src/per/qspi.h ****     // would make manually calling it unnecessary.
 108:../../libDaisy/src/per/qspi.h ****     /** 
 109:../../libDaisy/src/per/qspi.h ****         Deinitializes the peripheral
 110:../../libDaisy/src/per/qspi.h ****         This should be called before reinitializing QSPI in a different mode.
 111:../../libDaisy/src/per/qspi.h ****         \return Result::OK or Result::ERR
 112:../../libDaisy/src/per/qspi.h ****         */
 113:../../libDaisy/src/per/qspi.h ****     Result DeInit();
 114:../../libDaisy/src/per/qspi.h **** 
 115:../../libDaisy/src/per/qspi.h ****     /** 
 116:../../libDaisy/src/per/qspi.h ****         Writes a single page to to the specified address on the QSPI chip.
 117:../../libDaisy/src/per/qspi.h ****         For IS25LP*, page size is 256 bytes.
 118:../../libDaisy/src/per/qspi.h ****         \param address Address to write to
 119:../../libDaisy/src/per/qspi.h ****         \param size Buffer size
 120:../../libDaisy/src/per/qspi.h ****         \param buffer Buffer to write
 121:../../libDaisy/src/per/qspi.h ****         \return Result::OK or Result::ERR
 122:../../libDaisy/src/per/qspi.h ****         */
 123:../../libDaisy/src/per/qspi.h ****     Result WritePage(uint32_t address, uint32_t size, uint8_t* buffer);
 124:../../libDaisy/src/per/qspi.h **** 
 125:../../libDaisy/src/per/qspi.h ****     /** 
 126:../../libDaisy/src/per/qspi.h ****         Writes data in buffer to to the QSPI. Starting at address to address+size 
 127:../../libDaisy/src/per/qspi.h ****         \param address Address to write to
 128:../../libDaisy/src/per/qspi.h ****         \param size Buffer size
 129:../../libDaisy/src/per/qspi.h ****         \param buffer Buffer to write
 130:../../libDaisy/src/per/qspi.h ****         \return Result::OK or Result::ERR
 131:../../libDaisy/src/per/qspi.h ****         */
 132:../../libDaisy/src/per/qspi.h ****     Result Write(uint32_t address, uint32_t size, uint8_t* buffer);
 133:../../libDaisy/src/per/qspi.h **** 
 134:../../libDaisy/src/per/qspi.h ****     /** 
ARM GAS  C:\Users\jonas\AppData\Local\Temp\ccpfU1Vn.s 			page 58


 135:../../libDaisy/src/per/qspi.h ****         Erases the area specified on the chip.
 136:../../libDaisy/src/per/qspi.h ****         Erasures will happen by 4K, 32K or 64K increments.
 137:../../libDaisy/src/per/qspi.h ****         Smallest erase possible is 4kB at a time. (on IS25LP*)
 138:../../libDaisy/src/per/qspi.h ****         \param start_addr Address to begin erasing from
 139:../../libDaisy/src/per/qspi.h ****         \param end_addr  Address to stop erasing at
 140:../../libDaisy/src/per/qspi.h ****         \return Result::OK or Result::ERR
 141:../../libDaisy/src/per/qspi.h ****         */
 142:../../libDaisy/src/per/qspi.h ****     Result Erase(uint32_t start_addr, uint32_t end_addr);
 143:../../libDaisy/src/per/qspi.h **** 
 144:../../libDaisy/src/per/qspi.h ****     /**  
 145:../../libDaisy/src/per/qspi.h ****          Erases a single sector of the chip.  
 146:../../libDaisy/src/per/qspi.h ****         TODO: Document the size of this function. 
 147:../../libDaisy/src/per/qspi.h ****         \param address Address of sector to erase
 148:../../libDaisy/src/per/qspi.h ****         \return Result::OK or Result::ERR
 149:../../libDaisy/src/per/qspi.h ****         */
 150:../../libDaisy/src/per/qspi.h ****     Result EraseSector(uint32_t address);
 151:../../libDaisy/src/per/qspi.h **** 
 152:../../libDaisy/src/per/qspi.h ****     /** Returns the current class status. Useful for debugging.
 153:../../libDaisy/src/per/qspi.h ****      *  \returns Status
 154:../../libDaisy/src/per/qspi.h ****      */
 155:../../libDaisy/src/per/qspi.h ****     Status GetStatus();
 156:../../libDaisy/src/per/qspi.h **** 
 157:../../libDaisy/src/per/qspi.h ****     /** Returns a pointer to the actual memory used 
 158:../../libDaisy/src/per/qspi.h ****      *  The memory at this address is read-only
 159:../../libDaisy/src/per/qspi.h ****      *  to write to it use the Write function.
 160:../../libDaisy/src/per/qspi.h ****      * 
 161:../../libDaisy/src/per/qspi.h ****      *  \param offset returns the pointer starting this 
 162:../../libDaisy/src/per/qspi.h ****      *                many bytes into the memory
 163:../../libDaisy/src/per/qspi.h ****     */
 164:../../libDaisy/src/per/qspi.h ****     void* GetData(uint32_t offset = 0);
 165:../../libDaisy/src/per/qspi.h **** 
 166:../../libDaisy/src/per/qspi.h ****     QSPIHandle() : pimpl_(nullptr) {}
 1585              		.loc 16 166 5 view .LVU422
 1586              	.LBB296:
 1587              	.LBB297:
 1588              		.loc 16 166 34 is_stmt 0 view .LVU423
 1589 0014 224A     		ldr	r2, .L128+4
 1590 0016 1360     		str	r3, [r2]
 1591              	.LVL109:
 1592              		.loc 16 166 34 view .LVU424
 1593              	.LBE297:
 1594              	.LBE296:
 1595              	.LBE295:
 1596              	.LBB298:
 1597              	.LBI298:
  95:../../libDaisy/src/hid/audio.h ****     ~AudioHandle() {}
 1598              		.loc 11 95 5 is_stmt 1 view .LVU425
 1599              	.LBB299:
 1600              	.LBB300:
  95:../../libDaisy/src/hid/audio.h ****     ~AudioHandle() {}
 1601              		.loc 11 95 35 is_stmt 0 view .LVU426
 1602 0018 5361     		str	r3, [r2, #20]
 1603              	.LVL110:
  95:../../libDaisy/src/hid/audio.h ****     ~AudioHandle() {}
 1604              		.loc 11 95 35 view .LVU427
 1605              	.LBE300:
 1606              	.LBE299:
ARM GAS  C:\Users\jonas\AppData\Local\Temp\ccpfU1Vn.s 			page 59


 1607              	.LBE298:
 1608              	.LBB301:
 1609              	.LBI301:
 109:../../libDaisy/src/per/adc.h ****     ~AdcHandle() {}
 1610              		.loc 10 109 5 is_stmt 1 view .LVU428
 109:../../libDaisy/src/per/adc.h ****     ~AdcHandle() {}
 1611              		.loc 10 109 5 is_stmt 0 view .LVU429
 1612              	.LBE301:
 1613              	.LBB302:
 1614              	.LBI302:
 1615              		.file 17 "../../libDaisy/src/per/dac.h"
   1:../../libDaisy/src/per/dac.h **** #pragma once
   2:../../libDaisy/src/per/dac.h **** #ifndef DSY_DAC_H
   3:../../libDaisy/src/per/dac.h **** #define DSY_DAC_H
   4:../../libDaisy/src/per/dac.h **** 
   5:../../libDaisy/src/per/dac.h **** #include "daisy_core.h"
   6:../../libDaisy/src/per/dac.h **** 
   7:../../libDaisy/src/per/dac.h **** namespace daisy
   8:../../libDaisy/src/per/dac.h **** {
   9:../../libDaisy/src/per/dac.h **** /** @brief DAC handle for Built-in DAC Peripheral 
  10:../../libDaisy/src/per/dac.h ****  *  @ingroup per_analog
  11:../../libDaisy/src/per/dac.h ****  ** 
  12:../../libDaisy/src/per/dac.h ****  ** For now only Normal Mode is supported,
  13:../../libDaisy/src/per/dac.h ****  ** Sample and hold mode provides reduced power consumption, but requires a bit more setup.
  14:../../libDaisy/src/per/dac.h ****  **
  15:../../libDaisy/src/per/dac.h ****  ** For now connecting the DAC through other internal peripherals is also not supported.
  16:../../libDaisy/src/per/dac.h ****  **
  17:../../libDaisy/src/per/dac.h ****  ** Since the DAC channels have dedicated pins we don't need to pass in a pin config like with
  18:../../libDaisy/src/per/dac.h ****  ** other modules. However, it is still important to not try to use the DAC pins for anything else.
  19:../../libDaisy/src/per/dac.h ****  ** DAC Channel 1 is on PA4, and DAC Channel 2 is on PA5
  20:../../libDaisy/src/per/dac.h ****  ***/
  21:../../libDaisy/src/per/dac.h **** class DacHandle
  22:../../libDaisy/src/per/dac.h **** {
  23:../../libDaisy/src/per/dac.h ****   public:
  24:../../libDaisy/src/per/dac.h ****     /** Return Values for the DacHandle class */
  25:../../libDaisy/src/per/dac.h ****     enum class Result
  26:../../libDaisy/src/per/dac.h ****     {
  27:../../libDaisy/src/per/dac.h ****         OK,
  28:../../libDaisy/src/per/dac.h ****         ERR,
  29:../../libDaisy/src/per/dac.h ****     };
  30:../../libDaisy/src/per/dac.h **** 
  31:../../libDaisy/src/per/dac.h ****     /** Selects which channel(s) will be configured for use. */
  32:../../libDaisy/src/per/dac.h ****     enum class Channel
  33:../../libDaisy/src/per/dac.h ****     {
  34:../../libDaisy/src/per/dac.h ****         ONE,
  35:../../libDaisy/src/per/dac.h ****         TWO,
  36:../../libDaisy/src/per/dac.h ****         BOTH,
  37:../../libDaisy/src/per/dac.h ****     };
  38:../../libDaisy/src/per/dac.h **** 
  39:../../libDaisy/src/per/dac.h ****     /** Sets the Mode for the DAC channels.
  40:../../libDaisy/src/per/dac.h ****      **
  41:../../libDaisy/src/per/dac.h ****      ** Polling mode uses the blocking mode to transmit a single value at a time.
  42:../../libDaisy/src/per/dac.h ****      **
  43:../../libDaisy/src/per/dac.h ****      ** DMA mode uses a buffer, and periodically transmits it triggering a 
  44:../../libDaisy/src/per/dac.h ****      ** callback to fill the buffer when it is ready for more samples.
  45:../../libDaisy/src/per/dac.h ****      ***/
  46:../../libDaisy/src/per/dac.h ****     enum class Mode
ARM GAS  C:\Users\jonas\AppData\Local\Temp\ccpfU1Vn.s 			page 60


  47:../../libDaisy/src/per/dac.h ****     {
  48:../../libDaisy/src/per/dac.h ****         POLLING,
  49:../../libDaisy/src/per/dac.h ****         DMA,
  50:../../libDaisy/src/per/dac.h ****     };
  51:../../libDaisy/src/per/dac.h **** 
  52:../../libDaisy/src/per/dac.h ****     /** Sets the number of bits per sample transmitted out of the DAC.
  53:../../libDaisy/src/per/dac.h ****      ** The output range will be: 0V - VDDA
  54:../../libDaisy/src/per/dac.h ****      ** The resolution will be roughly: bitdepth / (VDDA - 0V) 
  55:../../libDaisy/src/per/dac.h ****      ***/
  56:../../libDaisy/src/per/dac.h ****     enum class BitDepth
  57:../../libDaisy/src/per/dac.h ****     {
  58:../../libDaisy/src/per/dac.h ****         BITS_8,
  59:../../libDaisy/src/per/dac.h ****         BITS_12
  60:../../libDaisy/src/per/dac.h ****     };
  61:../../libDaisy/src/per/dac.h **** 
  62:../../libDaisy/src/per/dac.h ****     /** Sets whether the DAC output is buffered for higher drive ability. */
  63:../../libDaisy/src/per/dac.h ****     enum class BufferState
  64:../../libDaisy/src/per/dac.h ****     {
  65:../../libDaisy/src/per/dac.h ****         ENABLED,
  66:../../libDaisy/src/per/dac.h ****         DISABLED,
  67:../../libDaisy/src/per/dac.h ****     };
  68:../../libDaisy/src/per/dac.h **** 
  69:../../libDaisy/src/per/dac.h ****     /** Configuration structure for initializing the DAC structure. */
  70:../../libDaisy/src/per/dac.h ****     struct Config
  71:../../libDaisy/src/per/dac.h ****     {
  72:../../libDaisy/src/per/dac.h ****         /** Target Samplerate in Hz used to configure the internal 
  73:../../libDaisy/src/per/dac.h ****          ** timebase for DMA mode. Does nothing in POLLING mode.
  74:../../libDaisy/src/per/dac.h ****          ** If the value is 0 at Init time this will default to 48000Hz 
  75:../../libDaisy/src/per/dac.h ****          ** otherwise the driver will attempt meet the target.*/
  76:../../libDaisy/src/per/dac.h ****         uint32_t target_samplerate;
  77:../../libDaisy/src/per/dac.h **** 
  78:../../libDaisy/src/per/dac.h ****         Channel     chn;
  79:../../libDaisy/src/per/dac.h ****         Mode        mode;
  80:../../libDaisy/src/per/dac.h ****         BitDepth    bitdepth;
  81:../../libDaisy/src/per/dac.h ****         BufferState buff_state;
  82:../../libDaisy/src/per/dac.h ****     };
  83:../../libDaisy/src/per/dac.h **** 
  84:../../libDaisy/src/per/dac.h ****     DacHandle() : pimpl_(nullptr) {}
 1616              		.loc 17 84 5 is_stmt 1 view .LVU430
 1617              	.LBB303:
 1618              	.LBB304:
 1619              		.loc 17 84 33 is_stmt 0 view .LVU431
 1620 001a 1362     		str	r3, [r2, #32]
 1621              	.LVL111:
 1622              		.loc 17 84 33 view .LVU432
 1623              	.LBE304:
 1624              	.LBE303:
 1625              	.LBE302:
 1626              	.LBB305:
 1627              	.LBI305:
  40:../../libDaisy/src/hid/usb.h **** 
 1628              		.loc 9 40 5 is_stmt 1 view .LVU433
  40:../../libDaisy/src/hid/usb.h **** 
 1629              		.loc 9 40 5 is_stmt 0 view .LVU434
 1630              	.LBE305:
 1631              	.LBB306:
 1632              	.LBI306:
ARM GAS  C:\Users\jonas\AppData\Local\Temp\ccpfU1Vn.s 			page 61


  96:../../libDaisy/src/sys/system.h ****     ~System() {}
 1633              		.loc 8 96 5 is_stmt 1 view .LVU435
  96:../../libDaisy/src/sys/system.h ****     ~System() {}
 1634              		.loc 8 96 5 is_stmt 0 view .LVU436
 1635              	.LBE306:
 1636              	.LBB307:
 1637              	.LBI307:
 1638              		.file 18 "../../libDaisy/src/per/sai.h"
   1:../../libDaisy/src/per/sai.h **** #pragma once
   2:../../libDaisy/src/per/sai.h **** #ifndef DSY_SAI_H
   3:../../libDaisy/src/per/sai.h **** #define DSY_SAI_H
   4:../../libDaisy/src/per/sai.h **** 
   5:../../libDaisy/src/per/sai.h **** #include "daisy_core.h"
   6:../../libDaisy/src/per/sai.h **** 
   7:../../libDaisy/src/per/sai.h **** namespace daisy
   8:../../libDaisy/src/per/sai.h **** {
   9:../../libDaisy/src/per/sai.h **** /** 
  10:../../libDaisy/src/per/sai.h ****  * Support for I2S Audio Protocol with different bit-depth, samplerate options
  11:../../libDaisy/src/per/sai.h ****  * Allows for master or slave, as well as freedom of selecting direction, 
  12:../../libDaisy/src/per/sai.h ****  * and other behavior for each peripheral, and block.
  13:../../libDaisy/src/per/sai.h ****  * 
  14:../../libDaisy/src/per/sai.h ****  * DMA Transfer commands must use buffers located within non-cached memory or use cache maintenance
  15:../../libDaisy/src/per/sai.h ****  * To declare an unitialized global element in the DMA memory section:
  16:../../libDaisy/src/per/sai.h ****  *    int32_t DSY_DMA_BUFFER_SECTOR my_buffer[96];
  17:../../libDaisy/src/per/sai.h ****  *
  18:../../libDaisy/src/per/sai.h ****  * Callback functions will be called once per half of the buffer. In the above example, 
  19:../../libDaisy/src/per/sai.h ****  * the callback function would be called once for every 48 samples.
  20:../../libDaisy/src/per/sai.h ****  * 
  21:../../libDaisy/src/per/sai.h ****  * Use SAI Handle like this:
  22:../../libDaisy/src/per/sai.h ****  * 
  23:../../libDaisy/src/per/sai.h ****  *  SaiHandle::Config sai_config;
  24:../../libDaisy/src/per/sai.h ****  *  sai_config.periph          = SaiHandle::Config::Peripheral::SAI_1;
  25:../../libDaisy/src/per/sai.h ****  *  sai_config.sr              = SaiHandle::Config::SampleRate::SAI_48KHZ;
  26:../../libDaisy/src/per/sai.h ****  *  sai_config.bit_depth       = SaiHandle::Config::BitDepth::SAI_24BIT;
  27:../../libDaisy/src/per/sai.h ****  *  sai_config.a_sync          = SaiHandle::Config::Sync::MASTER;
  28:../../libDaisy/src/per/sai.h ****  *  sai_config.b_sync          = SaiHandle::Config::Sync::SLAVE;
  29:../../libDaisy/src/per/sai.h ****  *  sai_config.a_dir           = SaiHandle::Config::Direction::RECEIVE;
  30:../../libDaisy/src/per/sai.h ****  *  sai_config.b_dir           = SaiHandle::Config::Direction::TRANSMIT;
  31:../../libDaisy/src/per/sai.h ****  *  sai_config.pin_config.fs   = {DSY_GPIOE, 4};
  32:../../libDaisy/src/per/sai.h ****  *  sai_config.pin_config.mclk = {DSY_GPIOE, 2};
  33:../../libDaisy/src/per/sai.h ****  *  sai_config.pin_config.sck  = {DSY_GPIOE, 5};
  34:../../libDaisy/src/per/sai.h ****  *  sai_config.pin_config.sa   = {DSY_GPIOE, 6};
  35:../../libDaisy/src/per/sai.h ****  *  sai_config.pin_config.sb   = {DSY_GPIOE, 3};
  36:../../libDaisy/src/per/sai.h ****  *  // Then Initialize
  37:../../libDaisy/src/per/sai.h ****  *  SaiHandle sai;
  38:../../libDaisy/src/per/sai.h ****  *  sai.Init(sai_config);
  39:../../libDaisy/src/per/sai.h ****  *  // Now you can use it:
  40:../../libDaisy/src/per/sai.h ****  *  sai.StartDma(. . .);
  41:../../libDaisy/src/per/sai.h ****  */
  42:../../libDaisy/src/per/sai.h **** class SaiHandle
  43:../../libDaisy/src/per/sai.h **** {
  44:../../libDaisy/src/per/sai.h ****   public:
  45:../../libDaisy/src/per/sai.h ****     /** Contains settings for initialising an SAI Interface */
  46:../../libDaisy/src/per/sai.h ****     struct Config
  47:../../libDaisy/src/per/sai.h ****     {
  48:../../libDaisy/src/per/sai.h ****         /** Specifies the internal peripheral to use (mapped to different hardware pins) */
  49:../../libDaisy/src/per/sai.h ****         enum class Peripheral
ARM GAS  C:\Users\jonas\AppData\Local\Temp\ccpfU1Vn.s 			page 62


  50:../../libDaisy/src/per/sai.h ****         {
  51:../../libDaisy/src/per/sai.h ****             SAI_1,
  52:../../libDaisy/src/per/sai.h ****             SAI_2,
  53:../../libDaisy/src/per/sai.h ****         };
  54:../../libDaisy/src/per/sai.h **** 
  55:../../libDaisy/src/per/sai.h ****         /** Rate at which samples will be streaming to/from the device. */
  56:../../libDaisy/src/per/sai.h ****         enum class SampleRate
  57:../../libDaisy/src/per/sai.h ****         {
  58:../../libDaisy/src/per/sai.h ****             SAI_8KHZ,
  59:../../libDaisy/src/per/sai.h ****             SAI_16KHZ,
  60:../../libDaisy/src/per/sai.h ****             SAI_32KHZ,
  61:../../libDaisy/src/per/sai.h ****             SAI_48KHZ,
  62:../../libDaisy/src/per/sai.h ****             SAI_96KHZ,
  63:../../libDaisy/src/per/sai.h ****         };
  64:../../libDaisy/src/per/sai.h **** 
  65:../../libDaisy/src/per/sai.h ****         /** Bit Depth that the hardware expects to be transferred to/from the device. */
  66:../../libDaisy/src/per/sai.h ****         enum class BitDepth
  67:../../libDaisy/src/per/sai.h ****         {
  68:../../libDaisy/src/per/sai.h ****             SAI_16BIT,
  69:../../libDaisy/src/per/sai.h ****             SAI_24BIT,
  70:../../libDaisy/src/per/sai.h ****             SAI_32BIT,
  71:../../libDaisy/src/per/sai.h ****         };
  72:../../libDaisy/src/per/sai.h **** 
  73:../../libDaisy/src/per/sai.h ****         /** Specifies whether a particular block is the master or the slave 
  74:../../libDaisy/src/per/sai.h ****          ** If both are set to slave, no MCLK signal will be used, and it is
  75:../../libDaisy/src/per/sai.h ****          ** expected that the codec will have its own xtal.
  76:../../libDaisy/src/per/sai.h ****          */
  77:../../libDaisy/src/per/sai.h ****         enum class Sync
  78:../../libDaisy/src/per/sai.h ****         {
  79:../../libDaisy/src/per/sai.h ****             MASTER,
  80:../../libDaisy/src/per/sai.h ****             SLAVE,
  81:../../libDaisy/src/per/sai.h ****         };
  82:../../libDaisy/src/per/sai.h **** 
  83:../../libDaisy/src/per/sai.h ****         /** Specifies the direction for each peripheral block. */
  84:../../libDaisy/src/per/sai.h ****         enum class Direction
  85:../../libDaisy/src/per/sai.h ****         {
  86:../../libDaisy/src/per/sai.h ****             TRANSMIT,
  87:../../libDaisy/src/per/sai.h ****             RECEIVE,
  88:../../libDaisy/src/per/sai.h ****         };
  89:../../libDaisy/src/per/sai.h **** 
  90:../../libDaisy/src/per/sai.h ****         Peripheral periph;
  91:../../libDaisy/src/per/sai.h ****         struct
  92:../../libDaisy/src/per/sai.h ****         {
  93:../../libDaisy/src/per/sai.h ****             dsy_gpio_pin mclk, fs, sck, sa, sb;
  94:../../libDaisy/src/per/sai.h ****         } pin_config;
  95:../../libDaisy/src/per/sai.h ****         SampleRate sr;
  96:../../libDaisy/src/per/sai.h ****         BitDepth   bit_depth;
  97:../../libDaisy/src/per/sai.h ****         Sync       a_sync, b_sync;
  98:../../libDaisy/src/per/sai.h ****         Direction  a_dir, b_dir;
  99:../../libDaisy/src/per/sai.h ****     };
 100:../../libDaisy/src/per/sai.h **** 
 101:../../libDaisy/src/per/sai.h ****     /** Return values for SAI functions */
 102:../../libDaisy/src/per/sai.h ****     enum class Result
 103:../../libDaisy/src/per/sai.h ****     {
 104:../../libDaisy/src/per/sai.h ****         OK,
 105:../../libDaisy/src/per/sai.h ****         ERR,
 106:../../libDaisy/src/per/sai.h ****     };
ARM GAS  C:\Users\jonas\AppData\Local\Temp\ccpfU1Vn.s 			page 63


 107:../../libDaisy/src/per/sai.h **** 
 108:../../libDaisy/src/per/sai.h ****     SaiHandle() : pimpl_(nullptr) {}
 1639              		.loc 18 108 5 is_stmt 1 view .LVU437
 1640              	.LBB308:
 1641              	.LBB309:
 1642              		.loc 18 108 33 is_stmt 0 view .LVU438
 1643 001c D363     		str	r3, [r2, #60]
 1644              	.LVL112:
 1645              		.loc 18 108 33 view .LVU439
 1646              	.LBE309:
 1647              	.LBE308:
 1648              	.LBE307:
 1649              	.LBE294:
 1650              	.LBE293:
 1651              	.LBB310:
 1652              	.LBI310:
  20:../../libDaisy/src/hid/encoder.h ****     ~Encoder() {}
 1653              		.loc 6 20 5 is_stmt 1 view .LVU440
 1654              	.LBB311:
 1655              	.LBB312:
 1656              	.LBI312:
  41:../../libDaisy/src/hid/switch.h ****     ~Switch() {}
 1657              		.loc 4 41 5 view .LVU441
  41:../../libDaisy/src/hid/switch.h ****     ~Switch() {}
 1658              		.loc 4 41 5 is_stmt 0 view .LVU442
 1659              	.LBE312:
 1660              	.LBE311:
 1661              	.LBE310:
  66:../../libDaisy/src/daisy_petal.h ****     /** Destructor */
 1662              		.loc 2 66 18 view .LVU443
 1663 001e 0523     		movs	r3, #5
 1664 0020 00E0     		b	.L115
 1665              	.L125:
 1666              	.LBB313:
 1667              	.LBI313:
  21:../../libDaisy/src/hid/ctrl.h ****     /** destructor */
 1668              		.loc 5 21 5 is_stmt 1 view .LVU444
 1669              	.LBE313:
  66:../../libDaisy/src/daisy_petal.h ****     /** Destructor */
 1670              		.loc 2 66 18 view .LVU445
 1671 0022 013B     		subs	r3, r3, #1
 1672              	.L115:
  66:../../libDaisy/src/daisy_petal.h ****     /** Destructor */
 1673              		.loc 2 66 18 view .LVU446
 1674 0024 002B     		cmp	r3, #0
 1675 0026 FCDA     		bge	.L125
 1676              	.LVL113:
 1677              	.LBB314:
 1678              	.LBI314:
  21:../../libDaisy/src/hid/ctrl.h ****     /** destructor */
 1679              		.loc 5 21 5 view .LVU447
  21:../../libDaisy/src/hid/ctrl.h ****     /** destructor */
 1680              		.loc 5 21 5 is_stmt 0 view .LVU448
 1681              	.LBE314:
  66:../../libDaisy/src/daisy_petal.h ****     /** Destructor */
 1682              		.loc 2 66 18 view .LVU449
 1683 0028 0623     		movs	r3, #6
ARM GAS  C:\Users\jonas\AppData\Local\Temp\ccpfU1Vn.s 			page 64


 1684 002a 00E0     		b	.L117
 1685              	.L126:
 1686              	.LBB315:
 1687              	.LBI315:
  41:../../libDaisy/src/hid/switch.h ****     ~Switch() {}
 1688              		.loc 4 41 5 is_stmt 1 view .LVU450
 1689              	.LBE315:
  66:../../libDaisy/src/daisy_petal.h ****     /** Destructor */
 1690              		.loc 2 66 18 view .LVU451
 1691 002c 013B     		subs	r3, r3, #1
 1692              	.L117:
  66:../../libDaisy/src/daisy_petal.h ****     /** Destructor */
 1693              		.loc 2 66 18 view .LVU452
 1694 002e 002B     		cmp	r3, #0
 1695 0030 FCDA     		bge	.L126
 1696 0032 0723     		movs	r3, #7
 1697 0034 00E0     		b	.L116
 1698              	.L127:
 1699              	.LBB316:
 1700              	.LBI316:
  17:../../libDaisy/src/hid/rgb_led.h ****     ~RgbLed() {}
 1701              		.loc 3 17 5 view .LVU453
 1702              	.LVL114:
 1703              	.LBB317:
 1704              	.LBI317:
  24:../../libDaisy/src/hid/led.h ****     ~Led() {}
 1705              		.loc 1 24 5 view .LVU454
  24:../../libDaisy/src/hid/led.h ****     ~Led() {}
 1706              		.loc 1 24 5 is_stmt 0 view .LVU455
 1707              	.LBE317:
 1708              	.LBB318:
 1709              	.LBI318:
  24:../../libDaisy/src/hid/led.h ****     ~Led() {}
 1710              		.loc 1 24 5 is_stmt 1 view .LVU456
  24:../../libDaisy/src/hid/led.h ****     ~Led() {}
 1711              		.loc 1 24 5 is_stmt 0 view .LVU457
 1712              	.LBE318:
 1713              	.LBB319:
 1714              	.LBI319:
  24:../../libDaisy/src/hid/led.h ****     ~Led() {}
 1715              		.loc 1 24 5 is_stmt 1 view .LVU458
  24:../../libDaisy/src/hid/led.h ****     ~Led() {}
 1716              		.loc 1 24 5 is_stmt 0 view .LVU459
 1717              	.LBE319:
 1718              	.LBE316:
  66:../../libDaisy/src/daisy_petal.h ****     /** Destructor */
 1719              		.loc 2 66 18 is_stmt 1 view .LVU460
 1720 0036 013B     		subs	r3, r3, #1
 1721              	.L116:
  66:../../libDaisy/src/daisy_petal.h ****     /** Destructor */
 1722              		.loc 2 66 18 view .LVU461
 1723 0038 002B     		cmp	r3, #0
 1724 003a FCDA     		bge	.L127
 1725 003c 0323     		movs	r3, #3
 1726              	.L118:
  66:../../libDaisy/src/daisy_petal.h ****     /** Destructor */
 1727              		.loc 2 66 18 view .LVU462
ARM GAS  C:\Users\jonas\AppData\Local\Temp\ccpfU1Vn.s 			page 65


 1728 003e 002B     		cmp	r3, #0
 1729 0040 01DB     		blt	.L119
 1730              	.LBB320:
 1731              	.LBI320:
  24:../../libDaisy/src/hid/led.h ****     ~Led() {}
 1732              		.loc 1 24 5 view .LVU463
 1733              	.LBE320:
  66:../../libDaisy/src/daisy_petal.h ****     /** Destructor */
 1734              		.loc 2 66 18 view .LVU464
 1735 0042 013B     		subs	r3, r3, #1
 1736 0044 FBE7     		b	.L118
 1737              	.L119:
 1738              	.LVL115:
 1739              	.LBB321:
 1740              	.LBI321:
 1741              		.file 19 "../../libDaisy/src/dev/leddriver.h"
   1:../../libDaisy/src/dev/leddriver.h **** #pragma once
   2:../../libDaisy/src/dev/leddriver.h **** #ifndef SA_LED_DRIVER_H
   3:../../libDaisy/src/dev/leddriver.h **** #define SA_LED_DRIVER_H /**< & */
   4:../../libDaisy/src/dev/leddriver.h **** 
   5:../../libDaisy/src/dev/leddriver.h **** #ifdef __cplusplus
   6:../../libDaisy/src/dev/leddriver.h **** 
   7:../../libDaisy/src/dev/leddriver.h **** #include <stdint.h>
   8:../../libDaisy/src/dev/leddriver.h **** #include "per/i2c.h"
   9:../../libDaisy/src/dev/leddriver.h **** #include "per/gpio.h"
  10:../../libDaisy/src/dev/leddriver.h **** 
  11:../../libDaisy/src/dev/leddriver.h **** namespace daisy
  12:../../libDaisy/src/dev/leddriver.h **** {
  13:../../libDaisy/src/dev/leddriver.h **** /** LED driver for one or multiple PCA9685 12bit PWM chips connected to
  14:../../libDaisy/src/dev/leddriver.h ****  * a single I2C peripheral.
  15:../../libDaisy/src/dev/leddriver.h ****  * It includes gamma correction from 8bit brightness values but it 
  16:../../libDaisy/src/dev/leddriver.h ****  * can also be supplied with raw 12bit values.
  17:../../libDaisy/src/dev/leddriver.h ****  * This driver uses two buffers - one for drawing, one for transmitting.
  18:../../libDaisy/src/dev/leddriver.h ****  * Multiple LedDriverPca9685 instances can be used at the same time.
  19:../../libDaisy/src/dev/leddriver.h ****  * \param numDrivers    The number of PCA9685 driver attached to the I2C
  20:../../libDaisy/src/dev/leddriver.h ****  *                      peripheral.
  21:../../libDaisy/src/dev/leddriver.h ****  * \param persistentBufferContents If set to true, the current draw buffer 
  22:../../libDaisy/src/dev/leddriver.h ****  *                      contents will be copied to the next draw buffer 
  23:../../libDaisy/src/dev/leddriver.h ****  *                      during SwapBuffersAndTransmit(). Use this, if you plan
  24:../../libDaisy/src/dev/leddriver.h ****  *                      to write single leds at a time. 
  25:../../libDaisy/src/dev/leddriver.h ****  *                      If you will alway update all leds before calling 
  26:../../libDaisy/src/dev/leddriver.h ****  *                      SwapBuffersAndTransmit(), you can set this to false
  27:../../libDaisy/src/dev/leddriver.h ****  *                      and safe some cycles.
  28:../../libDaisy/src/dev/leddriver.h ****  * 
  29:../../libDaisy/src/dev/leddriver.h ****  *  @ingroup device
  30:../../libDaisy/src/dev/leddriver.h ****  */
  31:../../libDaisy/src/dev/leddriver.h **** template <int numDrivers, bool persistentBufferContents = true>
  32:../../libDaisy/src/dev/leddriver.h **** class LedDriverPca9685
 1742              		.loc 19 32 7 view .LVU465
 1743              	.LBB322:
 1744              	.LBB323:
 1745              	.LBI323:
 1746              		.file 20 "../../libDaisy/src/per/i2c.h"
   1:../../libDaisy/src/per/i2c.h **** #pragma once
   2:../../libDaisy/src/per/i2c.h **** #include "daisy_core.h"
   3:../../libDaisy/src/per/i2c.h **** 
   4:../../libDaisy/src/per/i2c.h **** namespace daisy
ARM GAS  C:\Users\jonas\AppData\Local\Temp\ccpfU1Vn.s 			page 66


   5:../../libDaisy/src/per/i2c.h **** {
   6:../../libDaisy/src/per/i2c.h **** /** A handle for interacting with an I2C peripheral. This is a dumb
   7:../../libDaisy/src/per/i2c.h ****  *  gateway that internally points to one of the four I2C peripherals
   8:../../libDaisy/src/per/i2c.h ****  *  after it was initialised. It can then be copied and passed around.
   9:../../libDaisy/src/per/i2c.h ****  *  Use an I2CHandle like this:
  10:../../libDaisy/src/per/i2c.h ****  *  
  11:../../libDaisy/src/per/i2c.h ****  *      // setup the configuration
  12:../../libDaisy/src/per/i2c.h ****  *      I2CHandle::Config i2c_conf;
  13:../../libDaisy/src/per/i2c.h ****  *      i2c_conf.periph = I2CHandle::Config::Peripheral::I2C_1;
  14:../../libDaisy/src/per/i2c.h ****  *      i2c_conf.speed  = I2CHandle::Config::Speed::I2C_400KHZ;
  15:../../libDaisy/src/per/i2c.h ****  *      i2c_conf.mode   = I2CHandle::Config::Mode::Master;
  16:../../libDaisy/src/per/i2c.h ****  *      i2c_conf.pin_config.scl  = {DSY_GPIOB, 8};
  17:../../libDaisy/src/per/i2c.h ****  *      i2c_conf.pin_config.sda  = {DSY_GPIOB, 9};
  18:../../libDaisy/src/per/i2c.h ****  *      // initialise the peripheral
  19:../../libDaisy/src/per/i2c.h ****  *      I2CHandle i2c;
  20:../../libDaisy/src/per/i2c.h ****  *      i2c.Init(i2c_conf);
  21:../../libDaisy/src/per/i2c.h ****  *      // now i2c points to the corresponding peripheral and can be used.
  22:../../libDaisy/src/per/i2c.h ****  *      i2c.TransmitBlocking( ... );
  23:../../libDaisy/src/per/i2c.h ****  */
  24:../../libDaisy/src/per/i2c.h **** class I2CHandle
  25:../../libDaisy/src/per/i2c.h **** {
  26:../../libDaisy/src/per/i2c.h ****   public:
  27:../../libDaisy/src/per/i2c.h ****     /** Contains settings for initialising an I2C interface. */
  28:../../libDaisy/src/per/i2c.h ****     struct Config
  29:../../libDaisy/src/per/i2c.h ****     {
  30:../../libDaisy/src/per/i2c.h ****         /** Specifies whether the interface will operate in master or slave mode. */
  31:../../libDaisy/src/per/i2c.h ****         enum class Mode
  32:../../libDaisy/src/per/i2c.h ****         {
  33:../../libDaisy/src/per/i2c.h ****             I2C_MASTER,
  34:../../libDaisy/src/per/i2c.h ****             I2C_SLAVE,
  35:../../libDaisy/src/per/i2c.h ****         };
  36:../../libDaisy/src/per/i2c.h **** 
  37:../../libDaisy/src/per/i2c.h ****         /** Specifices the internal peripheral to use (these are mapped to different pins on the ha
  38:../../libDaisy/src/per/i2c.h ****         enum class Peripheral
  39:../../libDaisy/src/per/i2c.h ****         {
  40:../../libDaisy/src/per/i2c.h ****             I2C_1 = 0, /**< & */
  41:../../libDaisy/src/per/i2c.h ****             I2C_2,     /**< & */
  42:../../libDaisy/src/per/i2c.h ****             I2C_3,     /**< & */
  43:../../libDaisy/src/per/i2c.h ****             I2C_4,     /**< & */
  44:../../libDaisy/src/per/i2c.h ****         };
  45:../../libDaisy/src/per/i2c.h **** 
  46:../../libDaisy/src/per/i2c.h ****         /** Rate at which the clock/data will be sent/received. The device being used will have max
  47:../../libDaisy/src/per/i2c.h ****          *  1MHZ Mode is currently 886kHz
  48:../../libDaisy/src/per/i2c.h ****          */
  49:../../libDaisy/src/per/i2c.h ****         enum class Speed
  50:../../libDaisy/src/per/i2c.h ****         {
  51:../../libDaisy/src/per/i2c.h ****             I2C_100KHZ, /**< & */
  52:../../libDaisy/src/per/i2c.h ****             I2C_400KHZ, /**< & */
  53:../../libDaisy/src/per/i2c.h ****             I2C_1MHZ,   /**< & */
  54:../../libDaisy/src/per/i2c.h ****         };
  55:../../libDaisy/src/per/i2c.h **** 
  56:../../libDaisy/src/per/i2c.h ****         Peripheral periph; /**< & */
  57:../../libDaisy/src/per/i2c.h ****         struct
  58:../../libDaisy/src/per/i2c.h ****         {
  59:../../libDaisy/src/per/i2c.h ****             dsy_gpio_pin scl; /**< & */
  60:../../libDaisy/src/per/i2c.h ****             dsy_gpio_pin sda; /**< & */
  61:../../libDaisy/src/per/i2c.h ****         } pin_config;         /**< & */
ARM GAS  C:\Users\jonas\AppData\Local\Temp\ccpfU1Vn.s 			page 67


  62:../../libDaisy/src/per/i2c.h **** 
  63:../../libDaisy/src/per/i2c.h ****         Speed speed; /**< & */
  64:../../libDaisy/src/per/i2c.h ****         Mode  mode;  /**< & */
  65:../../libDaisy/src/per/i2c.h ****         // 0x10 is chosen as a default to avoid conflicts with reserved addresses
  66:../../libDaisy/src/per/i2c.h ****         uint8_t address = 0x10; /**< & */
  67:../../libDaisy/src/per/i2c.h ****     };
  68:../../libDaisy/src/per/i2c.h **** 
  69:../../libDaisy/src/per/i2c.h ****     /** Return values for I2C functions. */
  70:../../libDaisy/src/per/i2c.h ****     enum class Result
  71:../../libDaisy/src/per/i2c.h ****     {
  72:../../libDaisy/src/per/i2c.h ****         OK, /**< & */
  73:../../libDaisy/src/per/i2c.h ****         ERR /**< & */
  74:../../libDaisy/src/per/i2c.h ****     };
  75:../../libDaisy/src/per/i2c.h **** 
  76:../../libDaisy/src/per/i2c.h ****     enum class Direction
  77:../../libDaisy/src/per/i2c.h ****     {
  78:../../libDaisy/src/per/i2c.h ****         TRANSMIT, /**< & */
  79:../../libDaisy/src/per/i2c.h ****         RECEIVE,  /**< & */
  80:../../libDaisy/src/per/i2c.h ****     };
  81:../../libDaisy/src/per/i2c.h **** 
  82:../../libDaisy/src/per/i2c.h ****     I2CHandle() : pimpl_(nullptr) {}
 1747              		.loc 20 82 5 view .LVU466
 1748              	.LBB324:
 1749              	.LBB325:
 1750              		.loc 20 82 33 is_stmt 0 view .LVU467
 1751 0046 164C     		ldr	r4, .L128+4
 1752 0048 0023     		movs	r3, #0
 1753 004a C4F8C834 		str	r3, [r4, #1224]
 1754              	.LVL116:
 1755              		.loc 20 82 33 view .LVU468
 1756              	.LBE325:
 1757              	.LBE324:
 1758              	.LBE323:
 1759              		.loc 19 32 7 view .LVU469
 1760 004e 4FF40072 		mov	r2, #512
 1761 0052 1449     		ldr	r1, .L128+8
 1762 0054 04F2DE40 		addw	r0, r4, #1246
 1763 0058 FFF7FEFF 		bl	memcpy
 1764              	.LVL117:
 1765              		.loc 19 32 7 view .LVU470
 1766              	.LBE322:
 1767              	.LBE321:
 1768              	.LBE292:
 1769              	.LBE291:
 1770              	.LBE290:
  96:overdrive.cpp **** Chorus     ch;
 1771              		.loc 14 96 12 view .LVU471
 1772 005c 124A     		ldr	r2, .L128+12
 1773 005e 1349     		ldr	r1, .L128+16
 1774 0060 2046     		mov	r0, r4
 1775 0062 FFF7FEFF 		bl	__aeabi_atexit
 1776              	.LVL118:
 1777              	.LBB326:
 1778              	.LBI326:
  96:../../DaisySP/Source/Effects/chorus.h ****     ~Chorus() {}
 1779              		.loc 12 96 5 is_stmt 1 view .LVU472
 1780              	.LBB327:
ARM GAS  C:\Users\jonas\AppData\Local\Temp\ccpfU1Vn.s 			page 68


 1781              	.LBB328:
  96:../../DaisySP/Source/Effects/chorus.h ****     ~Chorus() {}
 1782              		.loc 12 96 14 is_stmt 0 view .LVU473
 1783 0066 0123     		movs	r3, #1
 1784              	.L121:
  96:../../DaisySP/Source/Effects/chorus.h ****     ~Chorus() {}
 1785              		.loc 12 96 14 is_stmt 1 view .LVU474
 1786 0068 002B     		cmp	r3, #0
 1787 006a 01DB     		blt	.L120
 1788              	.LBB329:
 1789              	.LBI329:
  28:../../DaisySP/Source/Effects/chorus.h ****     ~ChorusEngine() {}
 1790              		.loc 12 28 5 view .LVU475
 1791              	.LVL119:
 1792              	.LBB330:
 1793              	.LBI330:
  31:../../DaisySP/Source/Utility/delayline.h ****     ~DelayLine() {}
 1794              		.loc 13 31 5 view .LVU476
  31:../../DaisySP/Source/Utility/delayline.h ****     ~DelayLine() {}
 1795              		.loc 13 31 5 is_stmt 0 view .LVU477
 1796              	.LBE330:
 1797              	.LBE329:
  96:../../DaisySP/Source/Effects/chorus.h ****     ~Chorus() {}
 1798              		.loc 12 96 14 is_stmt 1 view .LVU478
 1799 006c 013B     		subs	r3, r3, #1
 1800 006e FBE7     		b	.L121
 1801              	.L120:
 1802              	.LVL120:
  96:../../DaisySP/Source/Effects/chorus.h ****     ~Chorus() {}
 1803              		.loc 12 96 14 is_stmt 0 view .LVU479
 1804              	.LBE328:
 1805              	.LBE327:
 1806              	.LBE326:
  97:overdrive.cpp **** Led led1, led2;
 1807              		.loc 14 97 12 view .LVU480
 1808 0070 0D4C     		ldr	r4, .L128+12
 1809 0072 2246     		mov	r2, r4
 1810 0074 0E49     		ldr	r1, .L128+20
 1811 0076 0F48     		ldr	r0, .L128+24
 1812 0078 FFF7FEFF 		bl	__aeabi_atexit
 1813              	.LVL121:
 1814              	.LBB331:
 1815              	.LBI331:
  24:../../libDaisy/src/hid/led.h ****     ~Led() {}
 1816              		.loc 1 24 5 is_stmt 1 view .LVU481
  24:../../libDaisy/src/hid/led.h ****     ~Led() {}
 1817              		.loc 1 24 5 is_stmt 0 view .LVU482
 1818              	.LBE331:
  98:overdrive.cpp **** RCfilter filter;
 1819              		.loc 14 98 5 view .LVU483
 1820 007c 0E4D     		ldr	r5, .L128+28
 1821 007e 2246     		mov	r2, r4
 1822 0080 2946     		mov	r1, r5
 1823 0082 0E48     		ldr	r0, .L128+32
 1824 0084 FFF7FEFF 		bl	__aeabi_atexit
 1825              	.LVL122:
 1826              	.LBB332:
ARM GAS  C:\Users\jonas\AppData\Local\Temp\ccpfU1Vn.s 			page 69


 1827              	.LBI332:
  24:../../libDaisy/src/hid/led.h ****     ~Led() {}
 1828              		.loc 1 24 5 is_stmt 1 view .LVU484
  24:../../libDaisy/src/hid/led.h ****     ~Led() {}
 1829              		.loc 1 24 5 is_stmt 0 view .LVU485
 1830              	.LBE332:
  98:overdrive.cpp **** RCfilter filter;
 1831              		.loc 14 98 11 view .LVU486
 1832 0088 2246     		mov	r2, r4
 1833 008a 2946     		mov	r1, r5
 1834 008c 0C48     		ldr	r0, .L128+36
 1835 008e FFF7FEFF 		bl	__aeabi_atexit
 1836              	.LVL123:
 1837              	.LBB333:
 1838              	.LBI333:
  45:overdrive.cpp ****     float LP_coeff[2];
 1839              		.loc 14 45 16 is_stmt 1 view .LVU487
 1840              	.LBB334:
 1841 0092 0C4B     		ldr	r3, .L128+40
 1842 0094 0022     		movs	r2, #0
 1843 0096 DA61     		str	r2, [r3, #28]	@ float
 1844 0098 1A62     		str	r2, [r3, #32]	@ float
 1845              	.LVL124:
  45:overdrive.cpp ****     float LP_coeff[2];
 1846              		.loc 14 45 16 is_stmt 0 view .LVU488
 1847              	.LBE334:
 1848              	.LBE333:
 1849              	.LBE287:
 1850              	.LBE286:
 1851              		.loc 14 359 1 view .LVU489
 1852 009a 38BD     		pop	{r3, r4, r5, pc}
 1853              	.L129:
 1854              		.align	2
 1855              	.L128:
 1856 009c 00000000 		.word	.LANCHOR1
 1857 00a0 00000000 		.word	.LANCHOR0
 1858 00a4 00000000 		.word	.LANCHOR8
 1859 00a8 00000000 		.word	__dso_handle
 1860 00ac 00000000 		.word	_ZN5daisy10DaisyPetalD1Ev
 1861 00b0 00000000 		.word	_ZN7daisysp6ChorusD1Ev
 1862 00b4 00000000 		.word	ch
 1863 00b8 00000000 		.word	_ZN5daisy3LedD1Ev
 1864 00bc 00000000 		.word	.LANCHOR5
 1865 00c0 00000000 		.word	.LANCHOR6
 1866 00c4 00000000 		.word	.LANCHOR3
 1867              		.cfi_endproc
 1868              	.LFE5272:
 1870              		.section	.init_array,"aw",%init_array
 1871              		.align	2
 1872 0000 00000000 		.word	_GLOBAL__sub_I_ANTI_ALIASING_LP_FILTER(target1)
 1873              		.global	buffer
 1874              		.global	fir
 1875              		.global	filter
 1876              		.global	led2
 1877              		.global	led1
 1878              		.global	ch
 1879              		.global	hw
ARM GAS  C:\Users\jonas\AppData\Local\Temp\ccpfU1Vn.s 			page 70


 1880              		.global	pedalAttribute
 1881              		.global	ANTI_ALIASING_LP_FILTER
 1882              		.section	.rodata
 1883              		.align	2
 1884              		.set	.LANCHOR8,. + 0
 1885              	.LC0:
 1886 0000 0000     		.short	0
 1887 0002 0100     		.short	1
 1888 0004 0100     		.short	1
 1889 0006 0100     		.short	1
 1890 0008 0100     		.short	1
 1891 000a 0100     		.short	1
 1892 000c 0100     		.short	1
 1893 000e 0100     		.short	1
 1894 0010 0100     		.short	1
 1895 0012 0100     		.short	1
 1896 0014 0100     		.short	1
 1897 0016 0100     		.short	1
 1898 0018 0200     		.short	2
 1899 001a 0200     		.short	2
 1900 001c 0200     		.short	2
 1901 001e 0200     		.short	2
 1902 0020 0200     		.short	2
 1903 0022 0200     		.short	2
 1904 0024 0200     		.short	2
 1905 0026 0300     		.short	3
 1906 0028 0300     		.short	3
 1907 002a 0400     		.short	4
 1908 002c 0400     		.short	4
 1909 002e 0500     		.short	5
 1910 0030 0500     		.short	5
 1911 0032 0600     		.short	6
 1912 0034 0700     		.short	7
 1913 0036 0800     		.short	8
 1914 0038 0800     		.short	8
 1915 003a 0900     		.short	9
 1916 003c 0A00     		.short	10
 1917 003e 0B00     		.short	11
 1918 0040 0C00     		.short	12
 1919 0042 0D00     		.short	13
 1920 0044 0F00     		.short	15
 1921 0046 1000     		.short	16
 1922 0048 1100     		.short	17
 1923 004a 1200     		.short	18
 1924 004c 1400     		.short	20
 1925 004e 1500     		.short	21
 1926 0050 1700     		.short	23
 1927 0052 1900     		.short	25
 1928 0054 1A00     		.short	26
 1929 0056 1C00     		.short	28
 1930 0058 1E00     		.short	30
 1931 005a 2000     		.short	32
 1932 005c 2200     		.short	34
 1933 005e 2400     		.short	36
 1934 0060 2600     		.short	38
 1935 0062 2800     		.short	40
 1936 0064 2B00     		.short	43
ARM GAS  C:\Users\jonas\AppData\Local\Temp\ccpfU1Vn.s 			page 71


 1937 0066 2D00     		.short	45
 1938 0068 3000     		.short	48
 1939 006a 3200     		.short	50
 1940 006c 3500     		.short	53
 1941 006e 3800     		.short	56
 1942 0070 3B00     		.short	59
 1943 0072 3E00     		.short	62
 1944 0074 4100     		.short	65
 1945 0076 4400     		.short	68
 1946 0078 4700     		.short	71
 1947 007a 4B00     		.short	75
 1948 007c 4E00     		.short	78
 1949 007e 5200     		.short	82
 1950 0080 5500     		.short	85
 1951 0082 5900     		.short	89
 1952 0084 5D00     		.short	93
 1953 0086 6100     		.short	97
 1954 0088 6500     		.short	101
 1955 008a 6900     		.short	105
 1956 008c 6E00     		.short	110
 1957 008e 7200     		.short	114
 1958 0090 7700     		.short	119
 1959 0092 7B00     		.short	123
 1960 0094 8000     		.short	128
 1961 0096 8500     		.short	133
 1962 0098 8A00     		.short	138
 1963 009a 8F00     		.short	143
 1964 009c 9500     		.short	149
 1965 009e 9A00     		.short	154
 1966 00a0 9F00     		.short	159
 1967 00a2 A500     		.short	165
 1968 00a4 AB00     		.short	171
 1969 00a6 B100     		.short	177
 1970 00a8 B700     		.short	183
 1971 00aa BD00     		.short	189
 1972 00ac C300     		.short	195
 1973 00ae CA00     		.short	202
 1974 00b0 D000     		.short	208
 1975 00b2 D700     		.short	215
 1976 00b4 DE00     		.short	222
 1977 00b6 E500     		.short	229
 1978 00b8 EC00     		.short	236
 1979 00ba F300     		.short	243
 1980 00bc FA00     		.short	250
 1981 00be 0201     		.short	258
 1982 00c0 0A01     		.short	266
 1983 00c2 1101     		.short	273
 1984 00c4 1901     		.short	281
 1985 00c6 2201     		.short	290
 1986 00c8 2A01     		.short	298
 1987 00ca 3201     		.short	306
 1988 00cc 3B01     		.short	315
 1989 00ce 4401     		.short	324
 1990 00d0 4C01     		.short	332
 1991 00d2 5501     		.short	341
 1992 00d4 5F01     		.short	351
 1993 00d6 6801     		.short	360
ARM GAS  C:\Users\jonas\AppData\Local\Temp\ccpfU1Vn.s 			page 72


 1994 00d8 7101     		.short	369
 1995 00da 7B01     		.short	379
 1996 00dc 8501     		.short	389
 1997 00de 8F01     		.short	399
 1998 00e0 9901     		.short	409
 1999 00e2 A301     		.short	419
 2000 00e4 AE01     		.short	430
 2001 00e6 B801     		.short	440
 2002 00e8 C301     		.short	451
 2003 00ea CE01     		.short	462
 2004 00ec D901     		.short	473
 2005 00ee E501     		.short	485
 2006 00f0 F001     		.short	496
 2007 00f2 FC01     		.short	508
 2008 00f4 0802     		.short	520
 2009 00f6 1402     		.short	532
 2010 00f8 2002     		.short	544
 2011 00fa 2C02     		.short	556
 2012 00fc 3902     		.short	569
 2013 00fe 4602     		.short	582
 2014 0100 5202     		.short	594
 2015 0102 6002     		.short	608
 2016 0104 6D02     		.short	621
 2017 0106 7A02     		.short	634
 2018 0108 8802     		.short	648
 2019 010a 9602     		.short	662
 2020 010c A402     		.short	676
 2021 010e B202     		.short	690
 2022 0110 C002     		.short	704
 2023 0112 CF02     		.short	719
 2024 0114 DE02     		.short	734
 2025 0116 ED02     		.short	749
 2026 0118 FC02     		.short	764
 2027 011a 0B03     		.short	779
 2028 011c 1B03     		.short	795
 2029 011e 2B03     		.short	811
 2030 0120 3B03     		.short	827
 2031 0122 4B03     		.short	843
 2032 0124 5B03     		.short	859
 2033 0126 6C03     		.short	876
 2034 0128 7D03     		.short	893
 2035 012a 8E03     		.short	910
 2036 012c 9F03     		.short	927
 2037 012e B003     		.short	944
 2038 0130 C203     		.short	962
 2039 0132 D403     		.short	980
 2040 0134 E603     		.short	998
 2041 0136 F803     		.short	1016
 2042 0138 0A04     		.short	1034
 2043 013a 1D04     		.short	1053
 2044 013c 3004     		.short	1072
 2045 013e 4304     		.short	1091
 2046 0140 5604     		.short	1110
 2047 0142 6A04     		.short	1130
 2048 0144 7E04     		.short	1150
 2049 0146 9204     		.short	1170
 2050 0148 A604     		.short	1190
ARM GAS  C:\Users\jonas\AppData\Local\Temp\ccpfU1Vn.s 			page 73


 2051 014a BA04     		.short	1210
 2052 014c CF04     		.short	1231
 2053 014e E404     		.short	1252
 2054 0150 F904     		.short	1273
 2055 0152 0E05     		.short	1294
 2056 0154 2405     		.short	1316
 2057 0156 3A05     		.short	1338
 2058 0158 5005     		.short	1360
 2059 015a 6605     		.short	1382
 2060 015c 7C05     		.short	1404
 2061 015e 9305     		.short	1427
 2062 0160 AA05     		.short	1450
 2063 0162 C105     		.short	1473
 2064 0164 D905     		.short	1497
 2065 0166 F005     		.short	1520
 2066 0168 0806     		.short	1544
 2067 016a 2006     		.short	1568
 2068 016c 3906     		.short	1593
 2069 016e 5106     		.short	1617
 2070 0170 6A06     		.short	1642
 2071 0172 8306     		.short	1667
 2072 0174 9D06     		.short	1693
 2073 0176 B606     		.short	1718
 2074 0178 D006     		.short	1744
 2075 017a EA06     		.short	1770
 2076 017c 0507     		.short	1797
 2077 017e 1F07     		.short	1823
 2078 0180 3A07     		.short	1850
 2079 0182 5507     		.short	1877
 2080 0184 7107     		.short	1905
 2081 0186 8C07     		.short	1932
 2082 0188 A807     		.short	1960
 2083 018a C407     		.short	1988
 2084 018c E107     		.short	2017
 2085 018e FD07     		.short	2045
 2086 0190 1A08     		.short	2074
 2087 0192 3708     		.short	2103
 2088 0194 5508     		.short	2133
 2089 0196 7208     		.short	2162
 2090 0198 9008     		.short	2192
 2091 019a AF08     		.short	2223
 2092 019c CD08     		.short	2253
 2093 019e EC08     		.short	2284
 2094 01a0 0B09     		.short	2315
 2095 01a2 2A09     		.short	2346
 2096 01a4 4A09     		.short	2378
 2097 01a6 6A09     		.short	2410
 2098 01a8 8A09     		.short	2442
 2099 01aa AA09     		.short	2474
 2100 01ac CB09     		.short	2507
 2101 01ae EC09     		.short	2540
 2102 01b0 0D0A     		.short	2573
 2103 01b2 2E0A     		.short	2606
 2104 01b4 500A     		.short	2640
 2105 01b6 720A     		.short	2674
 2106 01b8 940A     		.short	2708
 2107 01ba B70A     		.short	2743
ARM GAS  C:\Users\jonas\AppData\Local\Temp\ccpfU1Vn.s 			page 74


 2108 01bc DA0A     		.short	2778
 2109 01be FD0A     		.short	2813
 2110 01c0 210B     		.short	2849
 2111 01c2 440B     		.short	2884
 2112 01c4 680B     		.short	2920
 2113 01c6 8D0B     		.short	2957
 2114 01c8 B10B     		.short	2993
 2115 01ca D60B     		.short	3030
 2116 01cc FB0B     		.short	3067
 2117 01ce 210C     		.short	3105
 2118 01d0 470C     		.short	3143
 2119 01d2 6D0C     		.short	3181
 2120 01d4 930C     		.short	3219
 2121 01d6 BA0C     		.short	3258
 2122 01d8 E10C     		.short	3297
 2123 01da 080D     		.short	3336
 2124 01dc 300D     		.short	3376
 2125 01de 580D     		.short	3416
 2126 01e0 800D     		.short	3456
 2127 01e2 A80D     		.short	3496
 2128 01e4 D10D     		.short	3537
 2129 01e6 FA0D     		.short	3578
 2130 01e8 230E     		.short	3619
 2131 01ea 4D0E     		.short	3661
 2132 01ec 770E     		.short	3703
 2133 01ee A10E     		.short	3745
 2134 01f0 CC0E     		.short	3788
 2135 01f2 F70E     		.short	3831
 2136 01f4 220F     		.short	3874
 2137 01f6 4E0F     		.short	3918
 2138 01f8 7A0F     		.short	3962
 2139 01fa A60F     		.short	4006
 2140 01fc D20F     		.short	4050
 2141 01fe FF0F     		.short	4095
 2142              		.section	.bss.buffer,"aw",%nobits
 2143              		.align	2
 2144              		.set	.LANCHOR4,. + 0
 2147              	buffer:
 2148 0000 00000000 		.space	20
 2148      00000000 
 2148      00000000 
 2148      00000000 
 2148      00000000 
 2149              		.section	.bss.ch,"aw",%nobits
 2150              		.align	2
 2153              	ch:
 2154 0000 00000000 		.space	19292
 2154      00000000 
 2154      00000000 
 2154      00000000 
 2154      00000000 
 2155              		.section	.bss.filter,"aw",%nobits
 2156              		.align	2
 2157              		.set	.LANCHOR3,. + 0
 2160              	filter:
 2161 0000 00000000 		.space	52
 2161      00000000 
ARM GAS  C:\Users\jonas\AppData\Local\Temp\ccpfU1Vn.s 			page 75


 2161      00000000 
 2161      00000000 
 2161      00000000 
 2162              		.section	.bss.fir,"aw",%nobits
 2163              		.align	2
 2164              		.set	.LANCHOR7,. + 0
 2167              	fir:
 2168 0000 00000000 		.space	220
 2168      00000000 
 2168      00000000 
 2168      00000000 
 2168      00000000 
 2169              		.section	.bss.hw,"aw",%nobits
 2170              		.align	2
 2171              		.set	.LANCHOR0,. + 0
 2174              	hw:
 2175 0000 00000000 		.space	1760
 2175      00000000 
 2175      00000000 
 2175      00000000 
 2175      00000000 
 2176              		.section	.bss.led1,"aw",%nobits
 2177              		.align	2
 2178              		.set	.LANCHOR5,. + 0
 2181              	led1:
 2182 0000 00000000 		.space	28
 2182      00000000 
 2182      00000000 
 2182      00000000 
 2182      00000000 
 2183              		.section	.bss.led2,"aw",%nobits
 2184              		.align	2
 2185              		.set	.LANCHOR6,. + 0
 2188              	led2:
 2189 0000 00000000 		.space	28
 2189      00000000 
 2189      00000000 
 2189      00000000 
 2189      00000000 
 2190              		.section	.bss.pedalAttribute,"aw",%nobits
 2191              		.align	2
 2192              		.set	.LANCHOR1,. + 0
 2195              	pedalAttribute:
 2196 0000 00000000 		.space	40
 2196      00000000 
 2196      00000000 
 2196      00000000 
 2196      00000000 
 2197              		.section	.data.ANTI_ALIASING_LP_FILTER,"aw"
 2198              		.align	2
 2199              		.set	.LANCHOR2,. + 0
 2202              	ANTI_ALIASING_LP_FILTER:
 2203 0000 94BD103B 		.word	990952852
 2204 0004 E27BD13B 		.word	1003584482
 2205 0008 119C143C 		.word	1007983633
 2206 000c EE6AE73B 		.word	1005021934
 2207 0010 6B3AE6B9 		.word	-1176094101
ARM GAS  C:\Users\jonas\AppData\Local\Temp\ccpfU1Vn.s 			page 76


 2208 0014 78B0E3BB 		.word	-1142706056
 2209 0018 9F93C0BB 		.word	-1145007201
 2210 001c DCA6443B 		.word	994354908
 2211 0020 9363223C 		.word	1008886675
 2212 0024 00A4BA3B 		.word	1002087424
 2213 0028 6FB3EBBB 		.word	-1142181009
 2214 002c 7D4E65BC 		.word	-1134211459
 2215 0030 943A8ABB 		.word	-1148568940
 2216 0034 DFBA633C 		.word	1013168863
 2217 0038 616A983C 		.word	1016621665
 2218 003c C81F0EB9 		.word	-1190256696
 2219 0040 1340C7BC 		.word	-1127792621
 2220 0044 6DCFBDBC 		.word	-1128411283
 2221 0048 2578233C 		.word	1008957477
 2222 004c 9632293D 		.word	1026110102
 2223 0050 FEA6DD3C 		.word	1021159166
 2224 0054 494F06BD 		.word	-1123659959
 2225 0058 10F79CBD 		.word	-1113786608
 2226 005c 7217F3BC 		.word	-1124919438
 2227 0060 5541F43D 		.word	1039417685
 2228 0064 B40D943E 		.word	1049890228
 2229 0068 4055BA3E 		.word	1052398912
 2230 006c B40D943E 		.word	1049890228
 2231 0070 5541F43D 		.word	1039417685
 2232 0074 7217F3BC 		.word	-1124919438
 2233 0078 10F79CBD 		.word	-1113786608
 2234 007c 494F06BD 		.word	-1123659959
 2235 0080 FEA6DD3C 		.word	1021159166
 2236 0084 9632293D 		.word	1026110102
 2237 0088 2578233C 		.word	1008957477
 2238 008c 6DCFBDBC 		.word	-1128411283
 2239 0090 1340C7BC 		.word	-1127792621
 2240 0094 C81F0EB9 		.word	-1190256696
 2241 0098 616A983C 		.word	1016621665
 2242 009c DFBA633C 		.word	1013168863
 2243 00a0 943A8ABB 		.word	-1148568940
 2244 00a4 7D4E65BC 		.word	-1134211459
 2245 00a8 6FB3EBBB 		.word	-1142181009
 2246 00ac 00A4BA3B 		.word	1002087424
 2247 00b0 9363223C 		.word	1008886675
 2248 00b4 DCA6443B 		.word	994354908
 2249 00b8 9F93C0BB 		.word	-1145007201
 2250 00bc 78B0E3BB 		.word	-1142706056
 2251 00c0 6B3AE6B9 		.word	-1176094101
 2252 00c4 EE6AE73B 		.word	1005021934
 2253 00c8 119C143C 		.word	1007983633
 2254 00cc E27BD13B 		.word	1003584482
 2255 00d0 94BD103B 		.word	990952852
 2256              		.text
 2257              	.Letext0:
 2258              		.file 21 "c:\\program files\\daisytoolchain\\arm-none-eabi\\include\\machine\\_default_types.h"
 2259              		.file 22 "c:\\program files\\daisytoolchain\\arm-none-eabi\\include\\sys\\_stdint.h"
 2260              		.file 23 "c:\\program files\\daisytoolchain\\arm-none-eabi\\include\\stdint.h"
 2261              		.file 24 "c:\\program files\\daisytoolchain\\lib\\gcc\\arm-none-eabi\\10.2.1\\include\\stddef.h"
 2262              		.file 25 "c:\\program files\\daisytoolchain\\arm-none-eabi\\include\\c++\\10.2.1\\bits\\std_abs.h"
 2263              		.file 26 "c:\\program files\\daisytoolchain\\arm-none-eabi\\include\\c++\\10.2.1\\cstdlib"
 2264              		.file 27 "c:\\program files\\daisytoolchain\\arm-none-eabi\\include\\c++\\10.2.1\\cstdint"
ARM GAS  C:\Users\jonas\AppData\Local\Temp\ccpfU1Vn.s 			page 77


 2265              		.file 28 "c:\\program files\\daisytoolchain\\arm-none-eabi\\include\\c++\\10.2.1\\type_traits"
 2266              		.file 29 "c:\\program files\\daisytoolchain\\arm-none-eabi\\include\\c++\\10.2.1\\debug\\debug.h"
 2267              		.file 30 "c:\\program files\\daisytoolchain\\arm-none-eabi\\include\\c++\\10.2.1\\arm-none-eabi\\t
 2268              		.file 31 "c:\\program files\\daisytoolchain\\arm-none-eabi\\include\\c++\\10.2.1\\bits\\algorithmf
 2269              		.file 32 "c:\\program files\\daisytoolchain\\arm-none-eabi\\include\\c++\\10.2.1\\bits\\stl_pair.h
 2270              		.file 33 "c:\\program files\\daisytoolchain\\arm-none-eabi\\include\\c++\\10.2.1\\bits\\exception_
 2271              		.file 34 "c:\\program files\\daisytoolchain\\arm-none-eabi\\include\\c++\\10.2.1\\cstdarg"
 2272              		.file 35 "c:\\program files\\daisytoolchain\\arm-none-eabi\\include\\c++\\10.2.1\\cstdio"
 2273              		.file 36 "c:\\program files\\daisytoolchain\\arm-none-eabi\\include\\c++\\10.2.1\\cstring"
 2274              		.file 37 "c:\\program files\\daisytoolchain\\arm-none-eabi\\include\\c++\\10.2.1\\cwchar"
 2275              		.file 38 "c:\\program files\\daisytoolchain\\arm-none-eabi\\include\\c++\\10.2.1\\clocale"
 2276              		.file 39 "c:\\program files\\daisytoolchain\\arm-none-eabi\\include\\c++\\10.2.1\\bits\\basic_stri
 2277              		.file 40 "c:\\program files\\daisytoolchain\\arm-none-eabi\\include\\c++\\10.2.1\\bits\\stl_tempbu
 2278              		.file 41 "c:\\program files\\daisytoolchain\\arm-none-eabi\\include\\c++\\10.2.1\\bits\\predefined
 2279              		.file 42 "c:\\program files\\daisytoolchain\\arm-none-eabi\\include\\sys\\_types.h"
 2280              		.file 43 "c:\\program files\\daisytoolchain\\arm-none-eabi\\include\\sys\\reent.h"
 2281              		.file 44 "c:\\program files\\daisytoolchain\\arm-none-eabi\\include\\sys\\lock.h"
 2282              		.file 45 "c:\\program files\\daisytoolchain\\arm-none-eabi\\include\\math.h"
 2283              		.file 46 "c:\\program files\\daisytoolchain\\arm-none-eabi\\include\\stdlib.h"
 2284              		.file 47 "c:\\program files\\daisytoolchain\\arm-none-eabi\\include\\c++\\10.2.1\\math.h"
 2285              		.file 48 "c:\\program files\\daisytoolchain\\arm-none-eabi\\include\\c++\\10.2.1\\stdlib.h"
 2286              		.file 49 "../../libDaisy/src/daisy_core.h"
 2287              		.file 50 "../../libDaisy/src/per/tim.h"
 2288              		.file 51 "../../libDaisy/src/util/wav_format.h"
 2289              		.file 52 "../../libDaisy/src/util/color.h"
 2290              		.file 53 "../../libDaisy/src/dev/max11300.h"
 2291              		.file 54 "../../libDaisy/src/per/gpio.h"
 2292              		.file 55 "../../libDaisy/src/dev/sdram.h"
 2293              		.file 56 "c:\\program files\\daisytoolchain\\lib\\gcc\\arm-none-eabi\\10.2.1\\include\\stdarg.h"
 2294              		.file 57 "c:\\program files\\daisytoolchain\\arm-none-eabi\\include\\stdio.h"
 2295              		.file 58 "c:\\program files\\daisytoolchain\\arm-none-eabi\\include\\string.h"
 2296              		.file 59 "../../DaisySP/Source/Control/adenv.h"
 2297              		.file 60 "../../DaisySP/Source/Utility/dsp.h"
 2298              		.file 61 "c:\\program files\\daisytoolchain\\arm-none-eabi\\include\\wchar.h"
 2299              		.file 62 "c:\\program files\\daisytoolchain\\arm-none-eabi\\include\\locale.h"
 2300              		.file 63 "../../libDaisy/src/terrarium.h"
 2301              		.file 64 "<built-in>"
 2302              		.file 65 "../../libDaisy/src/dev/sr_595.h"
ARM GAS  C:\Users\jonas\AppData\Local\Temp\ccpfU1Vn.s 			page 78

